Archive member included to satisfy reference by file (symbol)

lib\platformDepLib.X.a(VarConversion.o)
                              build/default/production/source/RTM_monitor.o (integerToBytes)
lib\platformDepLib.X.a(messengerDuoUSB.o)
                              build/default/production/source/RTM_monitor.o (getMessageUSB)
lib\platformDepLib.X.a(platformControl.o)
                              build/default/production/source/platformMainMK.o (configPlatformUserMode)
lib\platformDepLib.X.a(platformInitAdc.o)
                              lib\platformDepLib.X.a(platformControl.o) (initADC)
lib\platformDepLib.X.a(platformInitTimer1.o)
                              lib\platformDepLib.X.a(platformInitAdc.o) (ledPulseActive)
lib\platformDepLib.X.a(platformInitTimer8.o)
                              lib\platformDepLib.X.a(platformControl.o) (initTimer8)
lib\platformDepLib.X.a(platformInputCapture.o)
                              lib\platformDepLib.X.a(platformControl.o) (setInputCaptureAsIrcInput)
lib\platformDepLib.X.a(platformOutputCompare.o)
                              lib\platformDepLib.X.a(platformControl.o) (setOutputCompare1asPwmOutput)
lib\platformDepLib.X.a(mesengerDuoUART.o)
                              lib\platformDepLib.X.a(platformControl.o) (initSendGetMessageUART)
lib\platformDepLib.X.a(mesengerFRAM.o)
                              lib\platformDepLib.X.a(platformControl.o) (initSendGetMessageFRAM)
c:/program files/microchip/xc32/v4.35/bin/bin/../../lib/gcc/pic32mx/8.3.1/../../../../pic32mx/lib/fpu64\libpic32.a(strcpy.o)
                              lib\platformDepLib.X.a(messengerDuoUSB.o) (strcpy)
c:/program files/microchip/xc32/v4.35/bin/bin/../../lib/gcc/pic32mx/8.3.1/../../../../pic32mx/lib/fpu64\libpic32.a(strlen.o)
                              lib\platformDepLib.X.a(messengerDuoUSB.o) (strlen)
c:/program files/microchip/xc32/v4.35/bin/bin/../../lib/gcc/pic32mx/8.3.1/../../../../pic32mx/lib/fpu64\libpic32.a(default-bootstrap-exception-handler.o)
                              C:\Users\samec\AppData\Local\Temp\ccc4siZ0.o (_bootstrap_exception_handler)
c:/program files/microchip/xc32/v4.35/bin/bin/../../lib/gcc/pic32mx/8.3.1/../../../../pic32mx/lib/fpu64\libpic32.a(default-on-reset.o)
                              C:\Users\samec\AppData\Local\Temp\ccc4siZ0.o (_on_reset)
c:/program files/microchip/xc32/v4.35/bin/bin/../../lib/gcc/pic32mx/8.3.1/../../../../pic32mx/lib/fpu64\libpic32.a(default-on-bootstrap.o)
                              C:\Users\samec\AppData\Local\Temp\ccc4siZ0.o (_on_bootstrap)
c:/program files/microchip/xc32/v4.35/bin/bin/../../lib/gcc/pic32mx/8.3.1/../../../../pic32mx/lib/fpu64\libpic32.a(default-nmi-handler.o)
                              C:\Users\samec\AppData\Local\Temp\ccc4siZ0.o (_nmi_handler)
c:/program files/microchip/xc32/v4.35/bin/bin/../../lib/gcc/pic32mx/8.3.1/../../../../pic32mx/lib/fpu64\libpic32.a(pic32_data_init_core.o)
                              C:\Users\samec\AppData\Local\Temp\ccc4siZ0.o (__pic32_data_init)
c:/program files/microchip/xc32/v4.35/bin/bin/../../lib/gcc/pic32mx/8.3.1/../../../../pic32mx/lib/fpu64\libpic32.a(general-exception.o)
                              C:\Users\samec\AppData\Local\Temp\ccc4siZ0.o (_general_exception_context)
c:/program files/microchip/xc32/v4.35/bin/bin/../../lib/gcc/pic32mx/8.3.1/../../../../pic32mx/lib/fpu64\libpic32.a(defaultinterrupt.o)
                              C:\Users\samec\AppData\Local\Temp\ccUIjBse.o (_DefaultInterrupt)
c:/program files/microchip/xc32/v4.35/bin/bin/../../lib/gcc/pic32mx/8.3.1/../../../../pic32mx/lib/fpu64\libpic32.a(default-general-exception-handler.o)
                              c:/program files/microchip/xc32/v4.35/bin/bin/../../lib/gcc/pic32mx/8.3.1/../../../../pic32mx/lib/fpu64\libpic32.a(general-exception.o) (_general_exception_handler)
c:/program files/microchip/xc32/v4.35/bin/bin/../../lib/gcc/pic32mx/8.3.1/../../../../pic32mx/lib/fpu64\libc-musl.a(__sio_sprintf_dn.o)
                              (_sprintf_dn)
c:/program files/microchip/xc32/v4.35/bin/bin/../../lib/gcc/pic32mx/8.3.1/../../../../pic32mx/lib/fpu64\libc-musl.a(__fmt_d.o)
                              c:/program files/microchip/xc32/v4.35/bin/bin/../../lib/gcc/pic32mx/8.3.1/../../../../pic32mx/lib/fpu64\libc-musl.a(__sio_sprintf_dn.o) (__fmt_d_needed)
c:/program files/microchip/xc32/v4.35/bin/bin/../../lib/gcc/pic32mx/8.3.1/../../../../pic32mx/lib/fpu64\libc-musl.a(__pop_int.o)
                              c:/program files/microchip/xc32/v4.35/bin/bin/../../lib/gcc/pic32mx/8.3.1/../../../../pic32mx/lib/fpu64\libc-musl.a(__sio_sprintf_dn.o) (__pop_int_needed)
c:/program files/microchip/xc32/v4.35/bin/bin/../../lib/gcc/pic32mx/8.3.1/../../../../pic32mx/lib/fpu64\libc-musl.a(__pop_ptr.o)
                              c:/program files/microchip/xc32/v4.35/bin/bin/../../lib/gcc/pic32mx/8.3.1/../../../../pic32mx/lib/fpu64\libc-musl.a(__sio_sprintf_dn.o) (__pop_ptr_needed)
c:/program files/microchip/xc32/v4.35/bin/bin/../../lib/gcc/pic32mx/8.3.1/../../../../pic32mx/lib/fpu64\libc-musl.a(__printf_core.o)
                              c:/program files/microchip/xc32/v4.35/bin/bin/../../lib/gcc/pic32mx/8.3.1/../../../../pic32mx/lib/fpu64\libc-musl.a(__fmt_d.o) (__pad)
c:/program files/microchip/xc32/v4.35/bin/bin/../../lib/gcc/pic32mx/8.3.1/../../../../pic32mx/lib/fpu64\libc-musl.a(atoi.o)
                              c:/program files/microchip/xc32/v4.35/bin/bin/../../lib/gcc/pic32mx/8.3.1/../../../../pic32mx/lib/fpu64\libc-musl.a(__printf_core.o) (atoi)
c:/program files/microchip/xc32/v4.35/bin/bin/../../lib/gcc/pic32mx/8.3.1/../../../../pic32mx/lib/fpu64\libc-musl.a(memcpy.o)
                              c:/program files/microchip/xc32/v4.35/bin/bin/../../lib/gcc/pic32mx/8.3.1/../../../../pic32mx/lib/fpu64\libc-musl.a(__printf_core.o) (memcpy)
c:/program files/microchip/xc32/v4.35/bin/bin/../../lib/gcc/pic32mx/8.3.1/../../../../pic32mx/lib/fpu64\libc-musl.a(memset.o)
                              c:/program files/microchip/xc32/v4.35/bin/bin/../../lib/gcc/pic32mx/8.3.1/../../../../pic32mx/lib/fpu64\libc-musl.a(__printf_core.o) (memset)
c:/program files/microchip/xc32/v4.35/bin/bin/../../lib/gcc/pic32mx/8.3.1/../../../../pic32mx/lib/fpu64\libc-musl.a(strcat.o)
                              lib\platformDepLib.X.a(messengerDuoUSB.o) (strcat)
c:/program files/microchip/xc32/v4.35/bin/bin/../../lib/gcc/pic32mx/8.3.1/../../../../pic32mx/lib/fpu64\libc-musl.a(tolower.o)
                              c:/program files/microchip/xc32/v4.35/bin/bin/../../lib/gcc/pic32mx/8.3.1/../../../../pic32mx/lib/fpu64\libc-musl.a(__printf_core.o) (tolower)
c:/program files/microchip/xc32/v4.35/bin/bin/../../lib/gcc/pic32mx/8.3.1/../../../../pic32mx/lib/fpu64\libc-musl.a(__int_vsprintf.o)
                              c:/program files/microchip/xc32/v4.35/bin/bin/../../lib/gcc/pic32mx/8.3.1/../../../../pic32mx/lib/fpu64\libc-musl.a(__sio_sprintf_dn.o) (__vsprintf)
c:/program files/microchip/xc32/v4.35/bin/bin/../../lib/gcc/pic32mx/8.3.1/../../../../pic32mx/lib/fpu64\libc-musl.a(__cvt_u.o)
                              c:/program files/microchip/xc32/v4.35/bin/bin/../../lib/gcc/pic32mx/8.3.1/../../../../pic32mx/lib/fpu64\libc-musl.a(__fmt_d.o) (__cvt_u)
c:/program files/microchip/xc32/v4.35/bin/bin/../../lib/gcc/pic32mx/8.3.1/../../../../pic32mx/lib/fpu64\libc-musl.a(__pop_float.o)
                              c:/program files/microchip/xc32/v4.35/bin/bin/../../lib/gcc/pic32mx/8.3.1/../../../../pic32mx/lib/fpu64\libc-musl.a(__printf_core.o) (__pop_float)
c:/program files/microchip/xc32/v4.35/bin/bin/../../lib/gcc/pic32mx/8.3.1/../../../../pic32mx/lib/fpu64\libc-musl.a(__int_vsnprintf.o)
                              c:/program files/microchip/xc32/v4.35/bin/bin/../../lib/gcc/pic32mx/8.3.1/../../../../pic32mx/lib/fpu64\libc-musl.a(__int_vsprintf.o) (__vsnprintf)
c:/program files/microchip/xc32/v4.35/bin/bin/../../lib/gcc/pic32mx/8.3.1/../../../../pic32mx/lib/fpu64\libc-musl.a(__int_vfprintf.o)
                              c:/program files/microchip/xc32/v4.35/bin/bin/../../lib/gcc/pic32mx/8.3.1/../../../../pic32mx/lib/fpu64\libc-musl.a(__int_vsnprintf.o) (__vfprintf)
c:/program files/microchip/xc32/v4.35/bin/bin/../../lib/gcc/pic32mx/8.3.1/fpu64\libgcc.a(_udivdi3.o)
                              c:/program files/microchip/xc32/v4.35/bin/bin/../../lib/gcc/pic32mx/8.3.1/../../../../pic32mx/lib/fpu64\libc-musl.a(__cvt_u.o) (__udivdi3)
c:/program files/microchip/xc32/v4.35/bin/bin/../../lib/gcc/pic32mx/8.3.1/fpu64\libgcc.a(_umoddi3.o)
                              c:/program files/microchip/xc32/v4.35/bin/bin/../../lib/gcc/pic32mx/8.3.1/../../../../pic32mx/lib/fpu64\libc-musl.a(__cvt_u.o) (__umoddi3)
c:/program files/microchip/xc32/v4.35/bin/bin/../../lib/gcc/pic32mx/8.3.1/../../../../pic32mx/lib/fpu64\libpic32.a(errno.o)
                              c:/program files/microchip/xc32/v4.35/bin/bin/../../lib/gcc/pic32mx/8.3.1/../../../../pic32mx/lib/fpu64\libc-musl.a(__printf_core.o) (errno)

Allocating common symbols
Common symbol       size              file

prijmi              0x11              build/default/production/source/RTM_monitor.o
zat                 0xc               build/default/production/source/applicationControl.o
vystupDekoderu      0x2               build/default/production/source/applicationControl.o
txBufferUART        0x27              lib\platformDepLib.X.a(mesengerDuoUART.o)
cur_vFil            0x2               lib\platformDepLib.X.a(platformInitAdc.o)
dekoderStopaA       0x2               build/default/production/source/applicationControl.o
rxBufferUSB         0x28              lib\platformDepLib.X.a(messengerDuoUSB.o)
txBufferIndexUSB    0x1               lib\platformDepLib.X.a(messengerDuoUSB.o)
pametS4             0x2               build/default/production/source/applicationControl.o
pametS6             0x2               build/default/production/source/applicationControl.o
LEDPbitsPf          0x4               lib\platformDepLib.X.a(platformControl.o)
txBufferCountUSB    0x1               lib\platformDepLib.X.a(messengerDuoUSB.o)
LEDFbitsPf          0x4               lib\platformDepLib.X.a(platformControl.o)
tlacitkoS8          0x2               build/default/production/source/applicationControl.o
voltPotFil          0x2               lib\platformDepLib.X.a(platformInitAdc.o)
cur_w               0x2               lib\platformDepLib.X.a(platformInitAdc.o)
cur_u               0x2               lib\platformDepLib.X.a(platformInitAdc.o)
tlacitkoS6          0x2               build/default/production/source/applicationControl.o
tlacitkoS4          0x2               build/default/production/source/applicationControl.o
txBufferEmptyUSB    0x1               lib\platformDepLib.X.a(messengerDuoUSB.o)
prepinac_RTM        0x1               build/default/production/source/applicationControl.o
dataRef             0x2               lib\platformDepLib.X.a(platformInitAdc.o)
txBufferEmptyUART   0x1               lib\platformDepLib.X.a(mesengerDuoUART.o)
txBufferIndexUART   0x1               lib\platformDepLib.X.a(mesengerDuoUART.o)
txBufferUSB         0x27              lib\platformDepLib.X.a(messengerDuoUSB.o)
cur_uFil            0x2               lib\platformDepLib.X.a(platformInitAdc.o)
dataSPI             0x2               lib\platformDepLib.X.a(platformControl.o)
odesli              0x11              build/default/production/source/RTM_monitor.o
cur_wFil            0x2               lib\platformDepLib.X.a(platformInitAdc.o)
dekoderStopaB       0x2               build/default/production/source/applicationControl.o
captureRTM          0xc               build/default/production/source/applicationControl.o
txBufferCountUART   0x1               lib\platformDepLib.X.a(mesengerDuoUART.o)
adcFilValue         0x2               lib\platformDepLib.X.a(platformInitAdc.o)
pametS5             0x2               build/default/production/source/applicationControl.o
rxBufferUART        0x28              lib\platformDepLib.X.a(mesengerDuoUART.o)
voltPot             0x2               lib\platformDepLib.X.a(platformInitAdc.o)
tlacitkoS7          0x2               build/default/production/source/applicationControl.o
cur_v               0x2               lib\platformDepLib.X.a(platformInitAdc.o)
tlacitkoS5          0x2               build/default/production/source/applicationControl.o
dataTemp            0x2               lib\platformDepLib.X.a(platformInitAdc.o)
c:/program files/microchip/xc32/v4.35/bin/bin/../../lib/gcc/pic32mx/8.3.1/../../../../pic32mx/lib/fpu64\libpic32.a(pic32_data_init_clear.o)
                              (__dinit_clear_needed)
c:/program files/microchip/xc32/v4.35/bin/bin/../../lib/gcc/pic32mx/8.3.1/../../../../pic32mx/lib/fpu64\libpic32.a(pic32_data_init_copy.o)
                              (__dinit_copy_needed)

Microchip PIC32 Memory-Usage Report

kseg0 Program-Memory Usage
section                    address  length [bytes]      (dec)  Description
-------                 ----------  -------------------------  -----------
.text                   0x9d000000          0x168         360  App's exec code 
.MIPS.abiflags          0x9d000168           0x18          24   
.app_excpt              0x9d000180           0x10          16  General-Exception 
.text.__string_out      0x9d000190           0x5c          92   
.rodata                 0x9d0001ec           0x14          20  Read-only const 
.vectors                0x9d000200           0xf0         240   
.text                   0x9d0002f0         0x4204       16900  App's exec code 
.text                   0x9d0044f4         0x2534        9524  App's exec code 
.text                   0x9d006a28         0x1200        4608  App's exec code 
.text                   0x9d007c28          0x7e8        2024  App's exec code 
.text.__printf_core     0x9d008410          0x5a4        1444   
.dinit                  0x9d0089b4          0x540        1344   
.text                   0x9d008ef4          0x7ec        2028  App's exec code 
.text                   0x9d0096e0          0x774        1908  App's exec code 
.text                   0x9d009e54          0x734        1844  App's exec code 
.text                   0x9d00a588          0x570        1392  App's exec code 
.text                   0x9d00aaf8          0x418        1048  App's exec code 
.text                   0x9d00af10          0x1a0         416  App's exec code 
.text.__pop_int         0x9d00b0b0          0x188         392   
.text                   0x9d00b238          0x15c         348  App's exec code 
.text.__fmt_d           0x9d00b394          0x150         336   
.text.__cvt_u           0x9d00b4e4          0x13c         316   
.text                   0x9d00b620          0x214         532  App's exec code 
.text.__pad             0x9d00b834          0x100         256   
.text.__pop_ptr         0x9d00b934           0xe4         228   
.text.general_exception 0x9d00ba18           0xdc         220   
.text                   0x9d00baf4           0xd4         212  App's exec code 
.text.__vsnprintf       0x9d00bbc8           0x80         128   
.text                   0x9d00bc48           0x7c         124  App's exec code 
.text.atoi              0x9d00bcc4           0x7c         124   
.text.__fmt_state       0x9d00bd40           0x58          88   
.text.main_entry        0x9d00bd98           0x54          84   
.rodata                 0x9d00bdec           0x4c          76  Read-only const 
.text._bootstrap_except 0x9d00be38           0x48          72   
.text._general_exceptio 0x9d00be80           0x48          72   
.text.__pop_float       0x9d00bec8           0x48          72   
.text                   0x9d00bf10           0x44          68  App's exec code 
.text.__vfprintf        0x9d00bf54           0x3c          60   
.text.strcat            0x9d00bf90           0x38          56   
.text.__sio_sprintf_dn  0x9d00bfc8           0x2c          44   
.text.memcpy            0x9d00bff4           0x2c          44   
.text.__wrap_sprintf    0x9d00c020           0x28          40   
.text.memset            0x9d00c048           0x28          40   
.text.__vsprintf        0x9d00c070           0x28          40   
.text                   0x9d00c098           0x20          32  App's exec code 
.text.tolower           0x9d00c0b8           0x1c          28   
.text.__tolower_l       0x9d00c0d4           0x1c          28   
.text                   0x9d00c0f0           0x18          24  App's exec code 
.rodata                 0x9d00c108           0x18          24  Read-only const 
.text                   0x9d00c120           0x18          24  App's exec code 
.rodata.str1.4          0x9d00c138            0xc          12   
.text._on_reset         0x9d00c144            0x8           8   
.text._on_bootstrap     0x9d00c14c            0x8           8   
.text.__dummy_fmt3      0x9d00c154            0x8           8   
.text.__dummy_fmt4      0x9d00c15c            0x8           8   
.text.__dummy_fmts      0x9d00c164            0x8           8   
      Total kseg0_program_mem used  :      0xc16c       49516  4.7% of 0x100000

kseg0 Boot-Memory Usage
section                    address  length [bytes]      (dec)  Description
-------                 ----------  -------------------------  -----------
         Total kseg0_boot_mem used  :           0           0  

kseg1 Boot-Memory Usage
section                    address  length [bytes]      (dec)  Description
-------                 ----------  -------------------------  -----------
.reset                  0xbfc00000          0x198         408  Reset handler 
.bev_excpt              0xbfc00380           0x10          16  BEV-Exception 
         Total kseg1_boot_mem used  :       0x1a8         424  36.8% of 0x480
        --------------------------------------------------------------------------
         Total Program Memory used  :      0xc314       49940  4.8% of 0x100480
        --------------------------------------------------------------------------


Data-Memory Usage
section                    address  length [bytes]      (dec)  Description
-------                 ----------  -------------------------  -----------
.sdata                  0x80000000           0x38          56  Small init data 
.sbss                   0x80000038          0x140         320  Small uninit data 
.bss                    0x80000178           0xe0         224  Uninitialized data 
.bss.errno              0x80000258            0x4           4   
         Total kseg0/kseg1 data_mem used  :       0x25c         604  0.2% of 0x40000
        --------------------------------------------------------------------------
            Total Data Memory used  :       0x25c         604  0.2% of 0x40000
        --------------------------------------------------------------------------


Dynamic Data-Memory Reservation
section                    address  length [bytes]      (dec)  Description
-------                 ----------  -------------------------  -----------
heap                    0x80000260           0x10          16  Reserved for heap 
stack                   0x80000288        0x3fd68      261480  Reserved for stack 

        --------------------------------------------------------------------------

Note: Microchip PIC32 Memory-Usage Report By Module might not be accurate when used in conjunction with LTO!
Microchip PIC32 Memory-Usage Report By Module

        text        data         bss         dec         hex    basename                                 filename
--------------------------------------------------------------------------------
        8712          44         130        8886        22b6    platformControl.o                    platformDepLib.X.a
        8236           0         115        8351        209f    mesengerDuoUART.o                    platformDepLib.X.a
        5480           0          31        5511        1587    platformInitAdc.o                    platformDepLib.X.a
        4116           1          94        4211        1073    messengerDuoUSB.o                    platformDepLib.X.a
        2328           1          28        2357         935    Capture.o                            build/default/production/source/Capture.o
        2304           8           0        2312         908    mesengerFRAM.o                       platformDepLib.X.a
        2024           0           0        2024         7e8    dekoder.o                            build/default/production/source/dekoder.o
        1940           0           0        1940         794    __printf_core.o                      libc-musl.a
        1344           0           0        1344         540    data_init                            data_init
        1024           0          65        1089         441    RTM_monitor.o                        build/default/production/source/RTM_monitor.o
        1052           0           0        1052         41c    pamet.o                              build/default/production/source/pamet.o
         976           0          66        1042         412    applicationControl.o                 build/default/production/source/applicationControl.o
         956           0           0         956         3bc    _udivdi3.o                           libgcc.a
         952           0           0         952         3b8    _umoddi3.o                           libgcc.a
           0         920           0         920         398    vector_offset_init.o                 c:/program files/microchip/xc32/v4.35/bin/bin/../../lib/gcc/pic32mx/8.3.1/../../../../pic32mx/lib/./proc/32MK1024MCF100\vector_offset_init.o
         896           0           0         896         380    platformOutputCompare.o              platformDepLib.X.a
         736           0           4         740         2e4    PWM.o                                build/default/production/source/PWM.o
         672           0           1         673         2a1    platformInitTimer1.o                 platformDepLib.X.a
         600           0           0         600         258    filtrace.o                           build/default/production/source/filtrace.o
         524           0           0         524         20c    ccc4siZ0.o                           C:\Users\samec\AppData\Local\Temp\ccc4siZ0.o
         456           0           1         457         1c9    platformInitTimer8.o                 platformDepLib.X.a
         416           0           0         416         1a0    strcpy.o                             libpic32.a
         392           0           0         392         188    __pop_int.o                          libc-musl.a
         360           0           0         360         168    strlen.o                             libpic32.a
         348           0           0         348         15c    VarConversion.o                      platformDepLib.X.a
         336           0           0         336         150    __fmt_d.o                            libc-musl.a
         316           0           0         316         13c    __cvt_u.o                            libc-musl.a
         292           0           0         292         124    platformMainMK.o                     build/default/production/source/platformMainMK.o
         264           0           0         264         108    platformInputCapture.o               platformDepLib.X.a
         228           0           0         228          e4    __pop_ptr.o                          libc-musl.a
         220           0           0         220          dc    general-exception.o                  libpic32.a
         212           0           0         212          d4    Hrad_pole.o                          build/default/production/source/Hrad_pole.o
         144           0           0         144          90    pic32_data_init_core.o               libpic32.a
         128           0           0         128          80    __int_vsnprintf.o                    libc-musl.a
         124           0           0         124          7c    atoi.o                               libc-musl.a
          84           0           0          84          54    __sio_sprintf_dn.o                   libc-musl.a
          72           0           0          72          48    default-general-exception-handler.o  libpic32.a
          72           0           0          72          48    defaultinterrupt.o                   libpic32.a
          72           0           0          72          48    default-bootstrap-exception-handler.olibpic32.a
          72           0           0          72          48    __pop_float.o                        libc-musl.a
          68           0           0          68          44    debug-exception-return.o             c:/program files/microchip/xc32/v4.35/bin/bin/../../lib/gcc/pic32mx/8.3.1/../../../../pic32mx/lib/fpu64\debug-exception-return.o
          68           0           0          68          44    pic32_software_reset.o               c:/program files/microchip/xc32/v4.35/bin/bin/../../lib/gcc/pic32mx/8.3.1/../../../../pic32mx/lib/fpu64\pic32_software_reset.o
          60           0           0          60          3c    __int_vfprintf.o                     libc-musl.a
          56           0           0          56          38    tolower.o                            libc-musl.a
          56           0           0          56          38    strcat.o                             libc-musl.a
          44           0           0          44          2c    memcpy.o                             libc-musl.a
          40           0           0          40          28    memset.o                             libc-musl.a
          40           0           0          40          28    __int_vsprintf.o                     libc-musl.a
          32           0           0          32          20    pic32_data_init_copy.o               libpic32.a
          24           0           0          24          18    pic32_data_init_clear.o              libpic32.a
          24           0           0          24          18    default-nmi-handler.o                libpic32.a
           8           0           0           8           8    default-on-bootstrap.o               libpic32.a
           8           0           0           8           8    default-on-reset.o                   libpic32.a
           0           0           4           4           4    errno.o                              libpic32.a
           0           0           0          11           b    padding                              padding
--------------------------------------------------------------------------------
       50008         974         539       51532        c94c    dist/default/production/dep.X.production.elf


Discarded input sections

 .xc_stack_usage.hdr
                0x0000000000000000        0xe c:/program files/microchip/xc32/v4.35/bin/bin/../../lib/gcc/pic32mx/8.3.1/../../../../pic32mx/lib/fpu64\debug-exception-return.o
 .xc_stack_usage
                0x0000000000000000       0x1d c:/program files/microchip/xc32/v4.35/bin/bin/../../lib/gcc/pic32mx/8.3.1/../../../../pic32mx/lib/fpu64\debug-exception-return.o
 .reginfo       0x0000000000000000       0x18 build/default/production/source/applicationControl.o
 .MIPS.abiflags
                0x0000000000000000       0x18 build/default/production/source/applicationControl.o
 .reginfo       0x0000000000000000       0x18 build/default/production/source/platformMainMK.o
 .MIPS.abiflags
                0x0000000000000000       0x18 build/default/production/source/platformMainMK.o
 .reginfo       0x0000000000000000       0x18 build/default/production/source/filtrace.o
 .MIPS.abiflags
                0x0000000000000000       0x18 build/default/production/source/filtrace.o
 .reginfo       0x0000000000000000       0x18 build/default/production/source/dekoder.o
 .MIPS.abiflags
                0x0000000000000000       0x18 build/default/production/source/dekoder.o
 .reginfo       0x0000000000000000       0x18 build/default/production/source/pamet.o
 .MIPS.abiflags
                0x0000000000000000       0x18 build/default/production/source/pamet.o
 .reginfo       0x0000000000000000       0x18 build/default/production/source/PWM.o
 .MIPS.abiflags
                0x0000000000000000       0x18 build/default/production/source/PWM.o
 .reginfo       0x0000000000000000       0x18 build/default/production/source/RTM_monitor.o
 .MIPS.abiflags
                0x0000000000000000       0x18 build/default/production/source/RTM_monitor.o
 .reginfo       0x0000000000000000       0x18 build/default/production/source/Hrad_pole.o
 .MIPS.abiflags
                0x0000000000000000       0x18 build/default/production/source/Hrad_pole.o
 .reginfo       0x0000000000000000       0x18 build/default/production/source/Capture.o
 .MIPS.abiflags
                0x0000000000000000       0x18 build/default/production/source/Capture.o
 .reginfo       0x0000000000000000       0x18 lib\platformDepLib.X.a(VarConversion.o)
 .MIPS.abiflags
                0x0000000000000000       0x18 lib\platformDepLib.X.a(VarConversion.o)
 .reginfo       0x0000000000000000       0x18 lib\platformDepLib.X.a(messengerDuoUSB.o)
 .MIPS.abiflags
                0x0000000000000000       0x18 lib\platformDepLib.X.a(messengerDuoUSB.o)
 .reginfo       0x0000000000000000       0x18 lib\platformDepLib.X.a(platformControl.o)
 .MIPS.abiflags
                0x0000000000000000       0x18 lib\platformDepLib.X.a(platformControl.o)
 .reginfo       0x0000000000000000       0x18 lib\platformDepLib.X.a(platformInitAdc.o)
 .MIPS.abiflags
                0x0000000000000000       0x18 lib\platformDepLib.X.a(platformInitAdc.o)
 .reginfo       0x0000000000000000       0x18 lib\platformDepLib.X.a(platformInitTimer1.o)
 .MIPS.abiflags
                0x0000000000000000       0x18 lib\platformDepLib.X.a(platformInitTimer1.o)
 .reginfo       0x0000000000000000       0x18 lib\platformDepLib.X.a(platformInitTimer8.o)
 .MIPS.abiflags
                0x0000000000000000       0x18 lib\platformDepLib.X.a(platformInitTimer8.o)
 .reginfo       0x0000000000000000       0x18 lib\platformDepLib.X.a(platformInputCapture.o)
 .MIPS.abiflags
                0x0000000000000000       0x18 lib\platformDepLib.X.a(platformInputCapture.o)
 .reginfo       0x0000000000000000       0x18 lib\platformDepLib.X.a(platformOutputCompare.o)
 .MIPS.abiflags
                0x0000000000000000       0x18 lib\platformDepLib.X.a(platformOutputCompare.o)
 .reginfo       0x0000000000000000       0x18 lib\platformDepLib.X.a(mesengerDuoUART.o)
 .MIPS.abiflags
                0x0000000000000000       0x18 lib\platformDepLib.X.a(mesengerDuoUART.o)
 .reginfo       0x0000000000000000       0x18 lib\platformDepLib.X.a(mesengerFRAM.o)
 .MIPS.abiflags
                0x0000000000000000       0x18 lib\platformDepLib.X.a(mesengerFRAM.o)
 .reginfo       0x0000000000000000       0x18 C:\Users\samec\AppData\Local\Temp\ccc4siZ0.o
 .MIPS.abiflags
                0x0000000000000000       0x18 C:\Users\samec\AppData\Local\Temp\ccc4siZ0.o
 .reginfo       0x0000000000000000       0x18 C:\Users\samec\AppData\Local\Temp\ccYT4Xoq.o
 .MIPS.abiflags
                0x0000000000000000       0x18 C:\Users\samec\AppData\Local\Temp\ccYT4Xoq.o
 .reginfo       0x0000000000000000       0x18 C:\Users\samec\AppData\Local\Temp\ccUIjBse.o
 .MIPS.abiflags
                0x0000000000000000       0x18 C:\Users\samec\AppData\Local\Temp\ccUIjBse.o
 .discard       0x0000000000000000        0x4 C:\Users\samec\AppData\Local\Temp\ccUIjBse.o
 .reginfo       0x0000000000000000       0x18 c:/program files/microchip/xc32/v4.35/bin/bin/../../lib/gcc/pic32mx/8.3.1/../../../../pic32mx/lib/./proc/32MK1024MCF100\default_isr_vectors.o
 .MIPS.abiflags
                0x0000000000000000       0x18 c:/program files/microchip/xc32/v4.35/bin/bin/../../lib/gcc/pic32mx/8.3.1/../../../../pic32mx/lib/./proc/32MK1024MCF100\default_isr_vectors.o
 .discard       0x0000000000000000        0x4 c:/program files/microchip/xc32/v4.35/bin/bin/../../lib/gcc/pic32mx/8.3.1/../../../../pic32mx/lib/./proc/32MK1024MCF100\default_isr_vectors.o
 .reginfo       0x0000000000000000       0x18 c:/program files/microchip/xc32/v4.35/bin/bin/../../lib/gcc/pic32mx/8.3.1/../../../../pic32mx/lib/fpu64\pic32_software_reset.o
 .MIPS.abiflags
                0x0000000000000000       0x18 c:/program files/microchip/xc32/v4.35/bin/bin/../../lib/gcc/pic32mx/8.3.1/../../../../pic32mx/lib/fpu64\pic32_software_reset.o
 .xc_stack_usage.hdr
                0x0000000000000000        0xe c:/program files/microchip/xc32/v4.35/bin/bin/../../lib/gcc/pic32mx/8.3.1/../../../../pic32mx/lib/fpu64\pic32_software_reset.o
 .xc_stack_usage
                0x0000000000000000       0x24 c:/program files/microchip/xc32/v4.35/bin/bin/../../lib/gcc/pic32mx/8.3.1/../../../../pic32mx/lib/fpu64\pic32_software_reset.o
 .reginfo       0x0000000000000000       0x18 c:/program files/microchip/xc32/v4.35/bin/bin/../../lib/gcc/pic32mx/8.3.1/../../../../pic32mx/lib/fpu64\libpic32.a(strcpy.o)
 .MIPS.abiflags
                0x0000000000000000       0x18 c:/program files/microchip/xc32/v4.35/bin/bin/../../lib/gcc/pic32mx/8.3.1/../../../../pic32mx/lib/fpu64\libpic32.a(strcpy.o)
 .xc_stack_usage.hdr
                0x0000000000000000        0xe c:/program files/microchip/xc32/v4.35/bin/bin/../../lib/gcc/pic32mx/8.3.1/../../../../pic32mx/lib/fpu64\libpic32.a(strcpy.o)
 .xc_stack_usage
                0x0000000000000000       0x14 c:/program files/microchip/xc32/v4.35/bin/bin/../../lib/gcc/pic32mx/8.3.1/../../../../pic32mx/lib/fpu64\libpic32.a(strcpy.o)
 .reginfo       0x0000000000000000       0x18 c:/program files/microchip/xc32/v4.35/bin/bin/../../lib/gcc/pic32mx/8.3.1/../../../../pic32mx/lib/fpu64\libpic32.a(strlen.o)
 .MIPS.abiflags
                0x0000000000000000       0x18 c:/program files/microchip/xc32/v4.35/bin/bin/../../lib/gcc/pic32mx/8.3.1/../../../../pic32mx/lib/fpu64\libpic32.a(strlen.o)
 .xc_stack_usage.hdr
                0x0000000000000000        0xe c:/program files/microchip/xc32/v4.35/bin/bin/../../lib/gcc/pic32mx/8.3.1/../../../../pic32mx/lib/fpu64\libpic32.a(strlen.o)
 .xc_stack_usage
                0x0000000000000000       0x14 c:/program files/microchip/xc32/v4.35/bin/bin/../../lib/gcc/pic32mx/8.3.1/../../../../pic32mx/lib/fpu64\libpic32.a(strlen.o)
 .reginfo       0x0000000000000000       0x18 c:/program files/microchip/xc32/v4.35/bin/bin/../../lib/gcc/pic32mx/8.3.1/../../../../pic32mx/lib/fpu64\libpic32.a(default-bootstrap-exception-handler.o)
 .MIPS.abiflags
                0x0000000000000000       0x18 c:/program files/microchip/xc32/v4.35/bin/bin/../../lib/gcc/pic32mx/8.3.1/../../../../pic32mx/lib/fpu64\libpic32.a(default-bootstrap-exception-handler.o)
 .xc_stack_usage
                0x0000000000000000       0x2a c:/program files/microchip/xc32/v4.35/bin/bin/../../lib/gcc/pic32mx/8.3.1/../../../../pic32mx/lib/fpu64\libpic32.a(default-bootstrap-exception-handler.o)
 .xc_stack_usage.hdr
                0x0000000000000000        0xe c:/program files/microchip/xc32/v4.35/bin/bin/../../lib/gcc/pic32mx/8.3.1/../../../../pic32mx/lib/fpu64\libpic32.a(default-bootstrap-exception-handler.o)
 .reginfo       0x0000000000000000       0x18 c:/program files/microchip/xc32/v4.35/bin/bin/../../lib/gcc/pic32mx/8.3.1/../../../../pic32mx/lib/fpu64\libpic32.a(default-on-reset.o)
 .MIPS.abiflags
                0x0000000000000000       0x18 c:/program files/microchip/xc32/v4.35/bin/bin/../../lib/gcc/pic32mx/8.3.1/../../../../pic32mx/lib/fpu64\libpic32.a(default-on-reset.o)
 .xc_stack_usage
                0x0000000000000000       0x17 c:/program files/microchip/xc32/v4.35/bin/bin/../../lib/gcc/pic32mx/8.3.1/../../../../pic32mx/lib/fpu64\libpic32.a(default-on-reset.o)
 .xc_stack_usage.hdr
                0x0000000000000000        0xe c:/program files/microchip/xc32/v4.35/bin/bin/../../lib/gcc/pic32mx/8.3.1/../../../../pic32mx/lib/fpu64\libpic32.a(default-on-reset.o)
 .reginfo       0x0000000000000000       0x18 c:/program files/microchip/xc32/v4.35/bin/bin/../../lib/gcc/pic32mx/8.3.1/../../../../pic32mx/lib/fpu64\libpic32.a(default-on-bootstrap.o)
 .MIPS.abiflags
                0x0000000000000000       0x18 c:/program files/microchip/xc32/v4.35/bin/bin/../../lib/gcc/pic32mx/8.3.1/../../../../pic32mx/lib/fpu64\libpic32.a(default-on-bootstrap.o)
 .xc_stack_usage
                0x0000000000000000       0x1b c:/program files/microchip/xc32/v4.35/bin/bin/../../lib/gcc/pic32mx/8.3.1/../../../../pic32mx/lib/fpu64\libpic32.a(default-on-bootstrap.o)
 .xc_stack_usage.hdr
                0x0000000000000000        0xe c:/program files/microchip/xc32/v4.35/bin/bin/../../lib/gcc/pic32mx/8.3.1/../../../../pic32mx/lib/fpu64\libpic32.a(default-on-bootstrap.o)
 .reginfo       0x0000000000000000       0x18 c:/program files/microchip/xc32/v4.35/bin/bin/../../lib/gcc/pic32mx/8.3.1/../../../../pic32mx/lib/fpu64\libpic32.a(default-nmi-handler.o)
 .MIPS.abiflags
                0x0000000000000000       0x18 c:/program files/microchip/xc32/v4.35/bin/bin/../../lib/gcc/pic32mx/8.3.1/../../../../pic32mx/lib/fpu64\libpic32.a(default-nmi-handler.o)
 .xc_stack_usage.hdr
                0x0000000000000000        0xe c:/program files/microchip/xc32/v4.35/bin/bin/../../lib/gcc/pic32mx/8.3.1/../../../../pic32mx/lib/fpu64\libpic32.a(default-nmi-handler.o)
 .xc_stack_usage
                0x0000000000000000       0x1a c:/program files/microchip/xc32/v4.35/bin/bin/../../lib/gcc/pic32mx/8.3.1/../../../../pic32mx/lib/fpu64\libpic32.a(default-nmi-handler.o)
 .reginfo       0x0000000000000000       0x18 c:/program files/microchip/xc32/v4.35/bin/bin/../../lib/gcc/pic32mx/8.3.1/../../../../pic32mx/lib/fpu64\libpic32.a(pic32_data_init_core.o)
 .MIPS.abiflags
                0x0000000000000000       0x18 c:/program files/microchip/xc32/v4.35/bin/bin/../../lib/gcc/pic32mx/8.3.1/../../../../pic32mx/lib/fpu64\libpic32.a(pic32_data_init_core.o)
 .xc_stack_usage.hdr
                0x0000000000000000        0xe c:/program files/microchip/xc32/v4.35/bin/bin/../../lib/gcc/pic32mx/8.3.1/../../../../pic32mx/lib/fpu64\libpic32.a(pic32_data_init_core.o)
 .xc_stack_usage
                0x0000000000000000       0x41 c:/program files/microchip/xc32/v4.35/bin/bin/../../lib/gcc/pic32mx/8.3.1/../../../../pic32mx/lib/fpu64\libpic32.a(pic32_data_init_core.o)
 .reginfo       0x0000000000000000       0x18 c:/program files/microchip/xc32/v4.35/bin/bin/../../lib/gcc/pic32mx/8.3.1/../../../../pic32mx/lib/fpu64\libpic32.a(general-exception.o)
 .MIPS.abiflags
                0x0000000000000000       0x18 c:/program files/microchip/xc32/v4.35/bin/bin/../../lib/gcc/pic32mx/8.3.1/../../../../pic32mx/lib/fpu64\libpic32.a(general-exception.o)
 .xc_stack_usage.hdr
                0x0000000000000000        0xe c:/program files/microchip/xc32/v4.35/bin/bin/../../lib/gcc/pic32mx/8.3.1/../../../../pic32mx/lib/fpu64\libpic32.a(general-exception.o)
 .xc_stack_usage
                0x0000000000000000       0x28 c:/program files/microchip/xc32/v4.35/bin/bin/../../lib/gcc/pic32mx/8.3.1/../../../../pic32mx/lib/fpu64\libpic32.a(general-exception.o)
 .reginfo       0x0000000000000000       0x18 c:/program files/microchip/xc32/v4.35/bin/bin/../../lib/gcc/pic32mx/8.3.1/../../../../pic32mx/lib/fpu64\libpic32.a(defaultinterrupt.o)
 .MIPS.abiflags
                0x0000000000000000       0x18 c:/program files/microchip/xc32/v4.35/bin/bin/../../lib/gcc/pic32mx/8.3.1/../../../../pic32mx/lib/fpu64\libpic32.a(defaultinterrupt.o)
 .xc_stack_usage
                0x0000000000000000       0x1f c:/program files/microchip/xc32/v4.35/bin/bin/../../lib/gcc/pic32mx/8.3.1/../../../../pic32mx/lib/fpu64\libpic32.a(defaultinterrupt.o)
 .xc_stack_usage.hdr
                0x0000000000000000        0xe c:/program files/microchip/xc32/v4.35/bin/bin/../../lib/gcc/pic32mx/8.3.1/../../../../pic32mx/lib/fpu64\libpic32.a(defaultinterrupt.o)
 .reginfo       0x0000000000000000       0x18 c:/program files/microchip/xc32/v4.35/bin/bin/../../lib/gcc/pic32mx/8.3.1/../../../../pic32mx/lib/fpu64\libpic32.a(default-general-exception-handler.o)
 .MIPS.abiflags
                0x0000000000000000       0x18 c:/program files/microchip/xc32/v4.35/bin/bin/../../lib/gcc/pic32mx/8.3.1/../../../../pic32mx/lib/fpu64\libpic32.a(default-general-exception-handler.o)
 .xc_stack_usage
                0x0000000000000000       0x28 c:/program files/microchip/xc32/v4.35/bin/bin/../../lib/gcc/pic32mx/8.3.1/../../../../pic32mx/lib/fpu64\libpic32.a(default-general-exception-handler.o)
 .xc_stack_usage.hdr
                0x0000000000000000        0xe c:/program files/microchip/xc32/v4.35/bin/bin/../../lib/gcc/pic32mx/8.3.1/../../../../pic32mx/lib/fpu64\libpic32.a(default-general-exception-handler.o)
 .reginfo       0x0000000000000000       0x18 c:/program files/microchip/xc32/v4.35/bin/bin/../../lib/gcc/pic32mx/8.3.1/../../../../pic32mx/lib/fpu64\libc-musl.a(__sio_sprintf_dn.o)
 .MIPS.abiflags
                0x0000000000000000       0x18 c:/program files/microchip/xc32/v4.35/bin/bin/../../lib/gcc/pic32mx/8.3.1/../../../../pic32mx/lib/fpu64\libc-musl.a(__sio_sprintf_dn.o)
 .xc_stack_usage
                0x0000000000000000       0x3a c:/program files/microchip/xc32/v4.35/bin/bin/../../lib/gcc/pic32mx/8.3.1/../../../../pic32mx/lib/fpu64\libc-musl.a(__sio_sprintf_dn.o)
 .xc_stack_usage.hdr
                0x0000000000000000        0xe c:/program files/microchip/xc32/v4.35/bin/bin/../../lib/gcc/pic32mx/8.3.1/../../../../pic32mx/lib/fpu64\libc-musl.a(__sio_sprintf_dn.o)
 .note.GNU-stack
                0x0000000000000000        0x0 c:/program files/microchip/xc32/v4.35/bin/bin/../../lib/gcc/pic32mx/8.3.1/../../../../pic32mx/lib/fpu64\libc-musl.a(__sio_sprintf_dn.o)
 .reginfo       0x0000000000000000       0x18 c:/program files/microchip/xc32/v4.35/bin/bin/../../lib/gcc/pic32mx/8.3.1/../../../../pic32mx/lib/fpu64\libc-musl.a(__fmt_d.o)
 .MIPS.abiflags
                0x0000000000000000       0x18 c:/program files/microchip/xc32/v4.35/bin/bin/../../lib/gcc/pic32mx/8.3.1/../../../../pic32mx/lib/fpu64\libc-musl.a(__fmt_d.o)
 .xc_stack_usage
                0x0000000000000000       0x15 c:/program files/microchip/xc32/v4.35/bin/bin/../../lib/gcc/pic32mx/8.3.1/../../../../pic32mx/lib/fpu64\libc-musl.a(__fmt_d.o)
 .xc_stack_usage.hdr
                0x0000000000000000        0xe c:/program files/microchip/xc32/v4.35/bin/bin/../../lib/gcc/pic32mx/8.3.1/../../../../pic32mx/lib/fpu64\libc-musl.a(__fmt_d.o)
 .note.GNU-stack
                0x0000000000000000        0x0 c:/program files/microchip/xc32/v4.35/bin/bin/../../lib/gcc/pic32mx/8.3.1/../../../../pic32mx/lib/fpu64\libc-musl.a(__fmt_d.o)
 .reginfo       0x0000000000000000       0x18 c:/program files/microchip/xc32/v4.35/bin/bin/../../lib/gcc/pic32mx/8.3.1/../../../../pic32mx/lib/fpu64\libc-musl.a(__pop_int.o)
 .MIPS.abiflags
                0x0000000000000000       0x18 c:/program files/microchip/xc32/v4.35/bin/bin/../../lib/gcc/pic32mx/8.3.1/../../../../pic32mx/lib/fpu64\libc-musl.a(__pop_int.o)
 .xc_stack_usage
                0x0000000000000000       0x17 c:/program files/microchip/xc32/v4.35/bin/bin/../../lib/gcc/pic32mx/8.3.1/../../../../pic32mx/lib/fpu64\libc-musl.a(__pop_int.o)
 .xc_stack_usage.hdr
                0x0000000000000000        0xe c:/program files/microchip/xc32/v4.35/bin/bin/../../lib/gcc/pic32mx/8.3.1/../../../../pic32mx/lib/fpu64\libc-musl.a(__pop_int.o)
 .note.GNU-stack
                0x0000000000000000        0x0 c:/program files/microchip/xc32/v4.35/bin/bin/../../lib/gcc/pic32mx/8.3.1/../../../../pic32mx/lib/fpu64\libc-musl.a(__pop_int.o)
 .reginfo       0x0000000000000000       0x18 c:/program files/microchip/xc32/v4.35/bin/bin/../../lib/gcc/pic32mx/8.3.1/../../../../pic32mx/lib/fpu64\libc-musl.a(__pop_ptr.o)
 .MIPS.abiflags
                0x0000000000000000       0x18 c:/program files/microchip/xc32/v4.35/bin/bin/../../lib/gcc/pic32mx/8.3.1/../../../../pic32mx/lib/fpu64\libc-musl.a(__pop_ptr.o)
 .xc_stack_usage
                0x0000000000000000       0x17 c:/program files/microchip/xc32/v4.35/bin/bin/../../lib/gcc/pic32mx/8.3.1/../../../../pic32mx/lib/fpu64\libc-musl.a(__pop_ptr.o)
 .xc_stack_usage.hdr
                0x0000000000000000        0xe c:/program files/microchip/xc32/v4.35/bin/bin/../../lib/gcc/pic32mx/8.3.1/../../../../pic32mx/lib/fpu64\libc-musl.a(__pop_ptr.o)
 .note.GNU-stack
                0x0000000000000000        0x0 c:/program files/microchip/xc32/v4.35/bin/bin/../../lib/gcc/pic32mx/8.3.1/../../../../pic32mx/lib/fpu64\libc-musl.a(__pop_ptr.o)
 .reginfo       0x0000000000000000       0x18 c:/program files/microchip/xc32/v4.35/bin/bin/../../lib/gcc/pic32mx/8.3.1/../../../../pic32mx/lib/fpu64\libc-musl.a(__printf_core.o)
 .MIPS.abiflags
                0x0000000000000000       0x18 c:/program files/microchip/xc32/v4.35/bin/bin/../../lib/gcc/pic32mx/8.3.1/../../../../pic32mx/lib/fpu64\libc-musl.a(__printf_core.o)
 .xc_stack_usage
                0x0000000000000000       0xaf c:/program files/microchip/xc32/v4.35/bin/bin/../../lib/gcc/pic32mx/8.3.1/../../../../pic32mx/lib/fpu64\libc-musl.a(__printf_core.o)
 .xc_stack_usage.hdr
                0x0000000000000000        0xe c:/program files/microchip/xc32/v4.35/bin/bin/../../lib/gcc/pic32mx/8.3.1/../../../../pic32mx/lib/fpu64\libc-musl.a(__printf_core.o)
 .note.GNU-stack
                0x0000000000000000        0x0 c:/program files/microchip/xc32/v4.35/bin/bin/../../lib/gcc/pic32mx/8.3.1/../../../../pic32mx/lib/fpu64\libc-musl.a(__printf_core.o)
 .reginfo       0x0000000000000000       0x18 c:/program files/microchip/xc32/v4.35/bin/bin/../../lib/gcc/pic32mx/8.3.1/../../../../pic32mx/lib/fpu64\libc-musl.a(atoi.o)
 .MIPS.abiflags
                0x0000000000000000       0x18 c:/program files/microchip/xc32/v4.35/bin/bin/../../lib/gcc/pic32mx/8.3.1/../../../../pic32mx/lib/fpu64\libc-musl.a(atoi.o)
 .xc_stack_usage
                0x0000000000000000       0x12 c:/program files/microchip/xc32/v4.35/bin/bin/../../lib/gcc/pic32mx/8.3.1/../../../../pic32mx/lib/fpu64\libc-musl.a(atoi.o)
 .xc_stack_usage.hdr
                0x0000000000000000        0xe c:/program files/microchip/xc32/v4.35/bin/bin/../../lib/gcc/pic32mx/8.3.1/../../../../pic32mx/lib/fpu64\libc-musl.a(atoi.o)
 .note.GNU-stack
                0x0000000000000000        0x0 c:/program files/microchip/xc32/v4.35/bin/bin/../../lib/gcc/pic32mx/8.3.1/../../../../pic32mx/lib/fpu64\libc-musl.a(atoi.o)
 .reginfo       0x0000000000000000       0x18 c:/program files/microchip/xc32/v4.35/bin/bin/../../lib/gcc/pic32mx/8.3.1/../../../../pic32mx/lib/fpu64\libc-musl.a(memcpy.o)
 .MIPS.abiflags
                0x0000000000000000       0x18 c:/program files/microchip/xc32/v4.35/bin/bin/../../lib/gcc/pic32mx/8.3.1/../../../../pic32mx/lib/fpu64\libc-musl.a(memcpy.o)
 .xc_stack_usage
                0x0000000000000000       0x14 c:/program files/microchip/xc32/v4.35/bin/bin/../../lib/gcc/pic32mx/8.3.1/../../../../pic32mx/lib/fpu64\libc-musl.a(memcpy.o)
 .xc_stack_usage.hdr
                0x0000000000000000        0xe c:/program files/microchip/xc32/v4.35/bin/bin/../../lib/gcc/pic32mx/8.3.1/../../../../pic32mx/lib/fpu64\libc-musl.a(memcpy.o)
 .note.GNU-stack
                0x0000000000000000        0x0 c:/program files/microchip/xc32/v4.35/bin/bin/../../lib/gcc/pic32mx/8.3.1/../../../../pic32mx/lib/fpu64\libc-musl.a(memcpy.o)
 .reginfo       0x0000000000000000       0x18 c:/program files/microchip/xc32/v4.35/bin/bin/../../lib/gcc/pic32mx/8.3.1/../../../../pic32mx/lib/fpu64\libc-musl.a(memset.o)
 .MIPS.abiflags
                0x0000000000000000       0x18 c:/program files/microchip/xc32/v4.35/bin/bin/../../lib/gcc/pic32mx/8.3.1/../../../../pic32mx/lib/fpu64\libc-musl.a(memset.o)
 .xc_stack_usage
                0x0000000000000000       0x14 c:/program files/microchip/xc32/v4.35/bin/bin/../../lib/gcc/pic32mx/8.3.1/../../../../pic32mx/lib/fpu64\libc-musl.a(memset.o)
 .xc_stack_usage.hdr
                0x0000000000000000        0xe c:/program files/microchip/xc32/v4.35/bin/bin/../../lib/gcc/pic32mx/8.3.1/../../../../pic32mx/lib/fpu64\libc-musl.a(memset.o)
 .note.GNU-stack
                0x0000000000000000        0x0 c:/program files/microchip/xc32/v4.35/bin/bin/../../lib/gcc/pic32mx/8.3.1/../../../../pic32mx/lib/fpu64\libc-musl.a(memset.o)
 .reginfo       0x0000000000000000       0x18 c:/program files/microchip/xc32/v4.35/bin/bin/../../lib/gcc/pic32mx/8.3.1/../../../../pic32mx/lib/fpu64\libc-musl.a(strcat.o)
 .MIPS.abiflags
                0x0000000000000000       0x18 c:/program files/microchip/xc32/v4.35/bin/bin/../../lib/gcc/pic32mx/8.3.1/../../../../pic32mx/lib/fpu64\libc-musl.a(strcat.o)
 .xc_stack_usage
                0x0000000000000000       0x14 c:/program files/microchip/xc32/v4.35/bin/bin/../../lib/gcc/pic32mx/8.3.1/../../../../pic32mx/lib/fpu64\libc-musl.a(strcat.o)
 .xc_stack_usage.hdr
                0x0000000000000000        0xe c:/program files/microchip/xc32/v4.35/bin/bin/../../lib/gcc/pic32mx/8.3.1/../../../../pic32mx/lib/fpu64\libc-musl.a(strcat.o)
 .note.GNU-stack
                0x0000000000000000        0x0 c:/program files/microchip/xc32/v4.35/bin/bin/../../lib/gcc/pic32mx/8.3.1/../../../../pic32mx/lib/fpu64\libc-musl.a(strcat.o)
 .reginfo       0x0000000000000000       0x18 c:/program files/microchip/xc32/v4.35/bin/bin/../../lib/gcc/pic32mx/8.3.1/../../../../pic32mx/lib/fpu64\libc-musl.a(tolower.o)
 .MIPS.abiflags
                0x0000000000000000       0x18 c:/program files/microchip/xc32/v4.35/bin/bin/../../lib/gcc/pic32mx/8.3.1/../../../../pic32mx/lib/fpu64\libc-musl.a(tolower.o)
 .xc_stack_usage
                0x0000000000000000       0x2e c:/program files/microchip/xc32/v4.35/bin/bin/../../lib/gcc/pic32mx/8.3.1/../../../../pic32mx/lib/fpu64\libc-musl.a(tolower.o)
 .xc_stack_usage.hdr
                0x0000000000000000        0xe c:/program files/microchip/xc32/v4.35/bin/bin/../../lib/gcc/pic32mx/8.3.1/../../../../pic32mx/lib/fpu64\libc-musl.a(tolower.o)
 .note.GNU-stack
                0x0000000000000000        0x0 c:/program files/microchip/xc32/v4.35/bin/bin/../../lib/gcc/pic32mx/8.3.1/../../../../pic32mx/lib/fpu64\libc-musl.a(tolower.o)
 .reginfo       0x0000000000000000       0x18 c:/program files/microchip/xc32/v4.35/bin/bin/../../lib/gcc/pic32mx/8.3.1/../../../../pic32mx/lib/fpu64\libc-musl.a(__int_vsprintf.o)
 .MIPS.abiflags
                0x0000000000000000       0x18 c:/program files/microchip/xc32/v4.35/bin/bin/../../lib/gcc/pic32mx/8.3.1/../../../../pic32mx/lib/fpu64\libc-musl.a(__int_vsprintf.o)
 .xc_stack_usage
                0x0000000000000000       0x18 c:/program files/microchip/xc32/v4.35/bin/bin/../../lib/gcc/pic32mx/8.3.1/../../../../pic32mx/lib/fpu64\libc-musl.a(__int_vsprintf.o)
 .xc_stack_usage.hdr
                0x0000000000000000        0xe c:/program files/microchip/xc32/v4.35/bin/bin/../../lib/gcc/pic32mx/8.3.1/../../../../pic32mx/lib/fpu64\libc-musl.a(__int_vsprintf.o)
 .note.GNU-stack
                0x0000000000000000        0x0 c:/program files/microchip/xc32/v4.35/bin/bin/../../lib/gcc/pic32mx/8.3.1/../../../../pic32mx/lib/fpu64\libc-musl.a(__int_vsprintf.o)
 .reginfo       0x0000000000000000       0x18 c:/program files/microchip/xc32/v4.35/bin/bin/../../lib/gcc/pic32mx/8.3.1/../../../../pic32mx/lib/fpu64\libc-musl.a(__cvt_u.o)
 .MIPS.abiflags
                0x0000000000000000       0x18 c:/program files/microchip/xc32/v4.35/bin/bin/../../lib/gcc/pic32mx/8.3.1/../../../../pic32mx/lib/fpu64\libc-musl.a(__cvt_u.o)
 .xc_stack_usage
                0x0000000000000000       0x15 c:/program files/microchip/xc32/v4.35/bin/bin/../../lib/gcc/pic32mx/8.3.1/../../../../pic32mx/lib/fpu64\libc-musl.a(__cvt_u.o)
 .xc_stack_usage.hdr
                0x0000000000000000        0xe c:/program files/microchip/xc32/v4.35/bin/bin/../../lib/gcc/pic32mx/8.3.1/../../../../pic32mx/lib/fpu64\libc-musl.a(__cvt_u.o)
 .note.GNU-stack
                0x0000000000000000        0x0 c:/program files/microchip/xc32/v4.35/bin/bin/../../lib/gcc/pic32mx/8.3.1/../../../../pic32mx/lib/fpu64\libc-musl.a(__cvt_u.o)
 .reginfo       0x0000000000000000       0x18 c:/program files/microchip/xc32/v4.35/bin/bin/../../lib/gcc/pic32mx/8.3.1/../../../../pic32mx/lib/fpu64\libc-musl.a(__pop_float.o)
 .MIPS.abiflags
                0x0000000000000000       0x18 c:/program files/microchip/xc32/v4.35/bin/bin/../../lib/gcc/pic32mx/8.3.1/../../../../pic32mx/lib/fpu64\libc-musl.a(__pop_float.o)
 .xc_stack_usage
                0x0000000000000000       0x19 c:/program files/microchip/xc32/v4.35/bin/bin/../../lib/gcc/pic32mx/8.3.1/../../../../pic32mx/lib/fpu64\libc-musl.a(__pop_float.o)
 .xc_stack_usage.hdr
                0x0000000000000000        0xe c:/program files/microchip/xc32/v4.35/bin/bin/../../lib/gcc/pic32mx/8.3.1/../../../../pic32mx/lib/fpu64\libc-musl.a(__pop_float.o)
 .note.GNU-stack
                0x0000000000000000        0x0 c:/program files/microchip/xc32/v4.35/bin/bin/../../lib/gcc/pic32mx/8.3.1/../../../../pic32mx/lib/fpu64\libc-musl.a(__pop_float.o)
 .reginfo       0x0000000000000000       0x18 c:/program files/microchip/xc32/v4.35/bin/bin/../../lib/gcc/pic32mx/8.3.1/../../../../pic32mx/lib/fpu64\libc-musl.a(__int_vsnprintf.o)
 .MIPS.abiflags
                0x0000000000000000       0x18 c:/program files/microchip/xc32/v4.35/bin/bin/../../lib/gcc/pic32mx/8.3.1/../../../../pic32mx/lib/fpu64\libc-musl.a(__int_vsnprintf.o)
 .xc_stack_usage
                0x0000000000000000       0x19 c:/program files/microchip/xc32/v4.35/bin/bin/../../lib/gcc/pic32mx/8.3.1/../../../../pic32mx/lib/fpu64\libc-musl.a(__int_vsnprintf.o)
 .xc_stack_usage.hdr
                0x0000000000000000        0xe c:/program files/microchip/xc32/v4.35/bin/bin/../../lib/gcc/pic32mx/8.3.1/../../../../pic32mx/lib/fpu64\libc-musl.a(__int_vsnprintf.o)
 .note.GNU-stack
                0x0000000000000000        0x0 c:/program files/microchip/xc32/v4.35/bin/bin/../../lib/gcc/pic32mx/8.3.1/../../../../pic32mx/lib/fpu64\libc-musl.a(__int_vsnprintf.o)
 .reginfo       0x0000000000000000       0x18 c:/program files/microchip/xc32/v4.35/bin/bin/../../lib/gcc/pic32mx/8.3.1/../../../../pic32mx/lib/fpu64\libc-musl.a(__int_vfprintf.o)
 .MIPS.abiflags
                0x0000000000000000       0x18 c:/program files/microchip/xc32/v4.35/bin/bin/../../lib/gcc/pic32mx/8.3.1/../../../../pic32mx/lib/fpu64\libc-musl.a(__int_vfprintf.o)
 .xc_stack_usage
                0x0000000000000000       0x18 c:/program files/microchip/xc32/v4.35/bin/bin/../../lib/gcc/pic32mx/8.3.1/../../../../pic32mx/lib/fpu64\libc-musl.a(__int_vfprintf.o)
 .xc_stack_usage.hdr
                0x0000000000000000        0xe c:/program files/microchip/xc32/v4.35/bin/bin/../../lib/gcc/pic32mx/8.3.1/../../../../pic32mx/lib/fpu64\libc-musl.a(__int_vfprintf.o)
 .note.GNU-stack
                0x0000000000000000        0x0 c:/program files/microchip/xc32/v4.35/bin/bin/../../lib/gcc/pic32mx/8.3.1/../../../../pic32mx/lib/fpu64\libc-musl.a(__int_vfprintf.o)
 .reginfo       0x0000000000000000       0x18 c:/program files/microchip/xc32/v4.35/bin/bin/../../lib/gcc/pic32mx/8.3.1/fpu64\libgcc.a(_udivdi3.o)
 .MIPS.abiflags
                0x0000000000000000       0x18 c:/program files/microchip/xc32/v4.35/bin/bin/../../lib/gcc/pic32mx/8.3.1/fpu64\libgcc.a(_udivdi3.o)
 .xc_stack_usage
                0x0000000000000000       0x17 c:/program files/microchip/xc32/v4.35/bin/bin/../../lib/gcc/pic32mx/8.3.1/fpu64\libgcc.a(_udivdi3.o)
 .xc_stack_usage.hdr
                0x0000000000000000        0xe c:/program files/microchip/xc32/v4.35/bin/bin/../../lib/gcc/pic32mx/8.3.1/fpu64\libgcc.a(_udivdi3.o)
 .reginfo       0x0000000000000000       0x18 c:/program files/microchip/xc32/v4.35/bin/bin/../../lib/gcc/pic32mx/8.3.1/fpu64\libgcc.a(_umoddi3.o)
 .MIPS.abiflags
                0x0000000000000000       0x18 c:/program files/microchip/xc32/v4.35/bin/bin/../../lib/gcc/pic32mx/8.3.1/fpu64\libgcc.a(_umoddi3.o)
 .xc_stack_usage
                0x0000000000000000       0x17 c:/program files/microchip/xc32/v4.35/bin/bin/../../lib/gcc/pic32mx/8.3.1/fpu64\libgcc.a(_umoddi3.o)
 .xc_stack_usage.hdr
                0x0000000000000000        0xe c:/program files/microchip/xc32/v4.35/bin/bin/../../lib/gcc/pic32mx/8.3.1/fpu64\libgcc.a(_umoddi3.o)
 .reginfo       0x0000000000000000       0x18 c:/program files/microchip/xc32/v4.35/bin/bin/../../lib/gcc/pic32mx/8.3.1/../../../../pic32mx/lib/fpu64\libpic32.a(errno.o)
 .MIPS.abiflags
                0x0000000000000000       0x18 c:/program files/microchip/xc32/v4.35/bin/bin/../../lib/gcc/pic32mx/8.3.1/../../../../pic32mx/lib/fpu64\libpic32.a(errno.o)
 .xc_stack_usage.hdr
                0x0000000000000000        0xe c:/program files/microchip/xc32/v4.35/bin/bin/../../lib/gcc/pic32mx/8.3.1/../../../../pic32mx/lib/fpu64\libpic32.a(errno.o)
 .reginfo       0x0000000000000000       0x18 c:/program files/microchip/xc32/v4.35/bin/bin/../../lib/gcc/pic32mx/8.3.1/../../../../pic32mx/lib/./proc/32MK1024MCF100\vector_offset_init.o
 .MIPS.abiflags
                0x0000000000000000       0x18 c:/program files/microchip/xc32/v4.35/bin/bin/../../lib/gcc/pic32mx/8.3.1/../../../../pic32mx/lib/./proc/32MK1024MCF100\vector_offset_init.o
 .reginfo       0x0000000000000000       0x18 c:/program files/microchip/xc32/v4.35/bin/bin/../../lib/gcc/pic32mx/8.3.1/../../../../pic32mx/lib/fpu64\libpic32.a(pic32_data_init_clear.o)
 .MIPS.abiflags
                0x0000000000000000       0x18 c:/program files/microchip/xc32/v4.35/bin/bin/../../lib/gcc/pic32mx/8.3.1/../../../../pic32mx/lib/fpu64\libpic32.a(pic32_data_init_clear.o)
 .xc_stack_usage.hdr
                0x0000000000000000        0xe c:/program files/microchip/xc32/v4.35/bin/bin/../../lib/gcc/pic32mx/8.3.1/../../../../pic32mx/lib/fpu64\libpic32.a(pic32_data_init_clear.o)
 .xc_stack_usage
                0x0000000000000000       0x1b c:/program files/microchip/xc32/v4.35/bin/bin/../../lib/gcc/pic32mx/8.3.1/../../../../pic32mx/lib/fpu64\libpic32.a(pic32_data_init_clear.o)
 .reginfo       0x0000000000000000       0x18 c:/program files/microchip/xc32/v4.35/bin/bin/../../lib/gcc/pic32mx/8.3.1/../../../../pic32mx/lib/fpu64\libpic32.a(pic32_data_init_copy.o)
 .MIPS.abiflags
                0x0000000000000000       0x18 c:/program files/microchip/xc32/v4.35/bin/bin/../../lib/gcc/pic32mx/8.3.1/../../../../pic32mx/lib/fpu64\libpic32.a(pic32_data_init_copy.o)
 .xc_stack_usage.hdr
                0x0000000000000000        0xe c:/program files/microchip/xc32/v4.35/bin/bin/../../lib/gcc/pic32mx/8.3.1/../../../../pic32mx/lib/fpu64\libpic32.a(pic32_data_init_copy.o)
 .xc_stack_usage
                0x0000000000000000       0x1a c:/program files/microchip/xc32/v4.35/bin/bin/../../lib/gcc/pic32mx/8.3.1/../../../../pic32mx/lib/fpu64\libpic32.a(pic32_data_init_copy.o)

Memory Configuration

Name             Origin             Length             Attributes
kseg0_program_mem 0x000000009d000000 0x0000000000100000 xr
kseg0_boot_mem   0x000000009fc20490 0x0000000000000000
debug_exec_mem   0x000000009fc20490 0x0000000000003b20
kseg1_boot_mem   0x00000000bfc00000 0x0000000000000480
kseg1_boot_mem_4B0 0x00000000bfc004b0 0x0000000000003b00
config_BFC03FC0  0x00000000bfc03fc0 0x0000000000000004
config_BFC03FC4  0x00000000bfc03fc4 0x0000000000000004
config_BFC03FC8  0x00000000bfc03fc8 0x0000000000000004
config_BFC03FCC  0x00000000bfc03fcc 0x0000000000000004
config_BFC03FDC  0x00000000bfc03fdc 0x0000000000000004
config_BFC03FEC  0x00000000bfc03fec 0x0000000000000004
config_BFC03FF0  0x00000000bfc03ff0 0x0000000000000004
lowerbootaliaslastpage 0x00000000bfc04000 0x0000000000001000
upperbootalias   0x00000000bfc20000 0x0000000000003fb0
config_BFC23FC0  0x00000000bfc23fc0 0x0000000000000004
config_BFC23FC4  0x00000000bfc23fc4 0x0000000000000004
config_BFC23FC8  0x00000000bfc23fc8 0x0000000000000004
config_BFC23FCC  0x00000000bfc23fcc 0x0000000000000004
config_BFC23FDC  0x00000000bfc23fdc 0x0000000000000004
config_BFC23FEC  0x00000000bfc23fec 0x0000000000000004
config_BFC23FF0  0x00000000bfc23ff0 0x0000000000000004
upperbootaliaslastpage 0x00000000bfc24000 0x0000000000001000
boot1            0x00000000bfc40000 0x0000000000003fb0
config_BFC43FC0  0x00000000bfc43fc0 0x0000000000000004
config_BFC43FC4  0x00000000bfc43fc4 0x0000000000000004
config_BFC43FC8  0x00000000bfc43fc8 0x0000000000000004
config_BFC43FCC  0x00000000bfc43fcc 0x0000000000000004
config_BFC43FDC  0x00000000bfc43fdc 0x0000000000000004
config_BFC43FEC  0x00000000bfc43fec 0x0000000000000004
config_BFC43FF0  0x00000000bfc43ff0 0x0000000000000004
boot1lastpage    0x00000000bfc44000 0x0000000000001000
config_BFC45000  0x00000000bfc45000 0x0000000000000004
config_BFC45004  0x00000000bfc45004 0x0000000000000004
config_BFC45008  0x00000000bfc45008 0x0000000000000004
config_BFC4500C  0x00000000bfc4500c 0x0000000000000004
config_BFC45010  0x00000000bfc45010 0x0000000000000004
config_BFC45014  0x00000000bfc45014 0x0000000000000004
config_BFC45018  0x00000000bfc45018 0x0000000000000004
config_BFC45020  0x00000000bfc45020 0x0000000000000004
config_BFC45024  0x00000000bfc45024 0x0000000000000004
config_BFC45028  0x00000000bfc45028 0x0000000000000004
config_BFC4502C  0x00000000bfc4502c 0x0000000000000004
config_BFC45030  0x00000000bfc45030 0x0000000000000004
config_BFC45034  0x00000000bfc45034 0x0000000000000004
config_BFC45038  0x00000000bfc45038 0x0000000000000004
config_BFC4503C  0x00000000bfc4503c 0x0000000000000004
boot2            0x00000000bfc60000 0x0000000000003fb0
config_BFC63FC0  0x00000000bfc63fc0 0x0000000000000004
config_BFC63FC4  0x00000000bfc63fc4 0x0000000000000004
config_BFC63FC8  0x00000000bfc63fc8 0x0000000000000004
config_BFC63FCC  0x00000000bfc63fcc 0x0000000000000004
config_BFC63FDC  0x00000000bfc63fdc 0x0000000000000004
config_BFC63FEC  0x00000000bfc63fec 0x0000000000000004
config_BFC63FF0  0x00000000bfc63ff0 0x0000000000000004
boot2lastpage    0x00000000bfc64000 0x0000000000001000
kseg0_data_mem   0x0000000080000000 0x0000000000040000 w !x
sfrs             0x00000000bf800000 0x0000000000100000
configsfrs_BFC03FB0 0x00000000bfc03fb0 0x000000000000001c
configsfrs_BFC23FB0 0x00000000bfc23fb0 0x000000000000001c
configsfrs_BFC43FB0 0x00000000bfc43fb0 0x000000000000001c
configsfrs_BFC45000 0x00000000bfc45000 0x000000000000001c
configsfrs_BFC45020 0x00000000bfc45020 0x0000000000000010
configsfrs_BFC45030 0x00000000bfc45030 0x0000000000000010
configsfrs_BFC63FB0 0x00000000bfc63fb0 0x000000000000001c
*default*        0x0000000000000000 0xffffffffffffffff

Linker script and memory map

LOAD c:/program files/microchip/xc32/v4.35/bin/bin/../../lib/gcc/pic32mx/8.3.1/../../../../pic32mx/lib/fpu64\debug-exception-return.o
LOAD build/default/production/source/applicationControl.o
LOAD build/default/production/source/platformMainMK.o
LOAD build/default/production/source/filtrace.o
LOAD build/default/production/source/dekoder.o
LOAD build/default/production/source/pamet.o
LOAD build/default/production/source/PWM.o
LOAD build/default/production/source/RTM_monitor.o
LOAD build/default/production/source/Hrad_pole.o
LOAD build/default/production/source/Capture.o
LOAD lib\platformDepLib.X.a
                0x0000000000000001                __MPLAB_BUILD = 0x1
LOAD C:\Users\samec\AppData\Local\Temp\ccc4siZ0.o
LOAD C:\Users\samec\AppData\Local\Temp\ccYT4Xoq.o
LOAD C:\Users\samec\AppData\Local\Temp\ccUIjBse.o
LOAD c:/program files/microchip/xc32/v4.35/bin/bin/../../lib/gcc/pic32mx/8.3.1/../../../../pic32mx/lib/./proc/32MK1024MCF100\default_isr_vectors.o
LOAD c:/program files/microchip/xc32/v4.35/bin/bin/../../lib/gcc/pic32mx/8.3.1/../../../../pic32mx/lib/fpu64\pic32_software_reset.o
LOAD c:/program files/microchip/xc32/v4.35/bin/bin/../../lib/gcc/pic32mx/8.3.1/fpu64\libgcc.a
START GROUP
LOAD c:/program files/microchip/xc32/v4.35/bin/bin/../../lib/gcc/pic32mx/8.3.1/../../../../pic32mx/lib/fpu64\libpic32.a
LOAD c:/program files/microchip/xc32/v4.35/bin/bin/../../lib/gcc/pic32mx/8.3.1/../../../../pic32mx/lib/fpu64\libdebug.a
LOAD c:/program files/microchip/xc32/v4.35/bin/bin/../../lib/gcc/pic32mx/8.3.1/../../../../pic32mx/lib/fpu64\libc-musl.a
LOAD c:/program files/microchip/xc32/v4.35/bin/bin/../../lib/gcc/pic32mx/8.3.1/../../../../pic32mx/lib/fpu64\libm-musl.a
LOAD c:/program files/microchip/xc32/v4.35/bin/bin/../../lib/gcc/pic32mx/8.3.1/../../../../pic32mx/lib/fpu64\libdspr2.a
LOAD c:/program files/microchip/xc32/v4.35/bin/bin/../../lib/gcc/pic32mx/8.3.1/../../../../pic32mx/lib/fpu64\libdsp.a
LOAD c:/program files/microchip/xc32/v4.35/bin/bin/../../lib/gcc/pic32mx/8.3.1/fpu64\libgcc.a
END GROUP
LOAD c:/program files/microchip/xc32/v4.35/bin/bin/../../lib/gcc/pic32mx/8.3.1/fpu64\libgcc.a
                0x0000000000000400                PROVIDE (_min_stack_size = 0x400)
START GROUP
LOAD c:/program files/microchip/xc32/v4.35/bin/bin/../../lib/gcc/pic32mx/8.3.1/../../../../pic32mx/lib/./proc/32MK1024MCF100\vector_offset_init.o
END GROUP
                0x0000000000000001                PROVIDE (_vector_spacing = 0x1)
                0x000000009d000000                PROVIDE (_ebase_address = 0x9d000000)
                0x00000000bfc00000                _RESET_ADDR = 0xbfc00000
                0x00000000bfc00380                _BEV_EXCPT_ADDR = 0xbfc00380
                0x00000000bfc00480                _DBG_EXCPT_ADDR = 0xbfc00480
                0x000000009d000000                _SIMPLE_TLB_REFILL_EXCPT_ADDR = (_ebase_address + 0x0)
                0x000000009d000180                _GEN_EXCPT_ADDR = (_ebase_address + 0x180)

.config_BFC03FC0
                0x00000000bfc03fc0        0x4
 *(.config_BFC03FC0)
 .config_BFC03FC0
                0x00000000bfc03fc0        0x4 build/default/production/source/platformMainMK.o
                0x00000000bfc03fc0                __config_BFC03FC0

.config_BFC03FC4
                0x00000000bfc03fc4        0x4
 *(.config_BFC03FC4)
 .config_BFC03FC4
                0x00000000bfc03fc4        0x4 build/default/production/source/platformMainMK.o
                0x00000000bfc03fc4                __config_BFC03FC4

.config_BFC03FC8
                0x00000000bfc03fc8        0x4
 *(.config_BFC03FC8)
 .config_BFC03FC8
                0x00000000bfc03fc8        0x4 build/default/production/source/platformMainMK.o
                0x00000000bfc03fc8                __config_BFC03FC8

.config_BFC03FCC
                0x00000000bfc03fcc        0x4
 *(.config_BFC03FCC)
 .config_BFC03FCC
                0x00000000bfc03fcc        0x4 build/default/production/source/platformMainMK.o
                0x00000000bfc03fcc                __config_BFC03FCC

.config_BFC03FDC
                0x00000000bfc03fdc        0x4
 *(.config_BFC03FDC)
 .config_BFC03FDC
                0x00000000bfc03fdc        0x4 build/default/production/source/platformMainMK.o
                0x00000000bfc03fdc                __config_BFC03FDC

.config_BFC03FEC
 *(.config_BFC03FEC)

.config_BFC03FF0
                0x00000000bfc03ff0        0x4
 *(.config_BFC03FF0)
 .config_BFC03FF0
                0x00000000bfc03ff0        0x4 build/default/production/source/platformMainMK.o
                0x00000000bfc03ff0                __config_BFC03FF0

.config_BFC23FC0
 *(.config_BFC23FC0)

.config_BFC23FC4
 *(.config_BFC23FC4)

.config_BFC23FC8
 *(.config_BFC23FC8)

.config_BFC23FCC
 *(.config_BFC23FCC)

.config_BFC23FDC
 *(.config_BFC23FDC)

.config_BFC23FEC
 *(.config_BFC23FEC)

.config_BFC23FF0
 *(.config_BFC23FF0)

.config_BFC43FC0
 *(.config_BFC43FC0)

.config_BFC43FC4
 *(.config_BFC43FC4)

.config_BFC43FC8
 *(.config_BFC43FC8)

.config_BFC43FCC
 *(.config_BFC43FCC)

.config_BFC43FDC
 *(.config_BFC43FDC)

.config_BFC43FEC
 *(.config_BFC43FEC)

.config_BFC43FF0
 *(.config_BFC43FF0)

.config_BFC45000
 *(.config_BFC45000)

.config_BFC45004
 *(.config_BFC45004)

.config_BFC45008
 *(.config_BFC45008)

.config_BFC4500C
 *(.config_BFC4500C)

.config_BFC45010
 *(.config_BFC45010)

.config_BFC45014
 *(.config_BFC45014)

.config_BFC45018
 *(.config_BFC45018)

.config_BFC45020
 *(.config_BFC45020)

.config_BFC45024
 *(.config_BFC45024)

.config_BFC45028
 *(.config_BFC45028)

.config_BFC4502C
 *(.config_BFC4502C)

.config_BFC45030
 *(.config_BFC45030)

.config_BFC45034
 *(.config_BFC45034)

.config_BFC45038
 *(.config_BFC45038)

.config_BFC4503C
 *(.config_BFC4503C)

.config_BFC63FC0
 *(.config_BFC63FC0)

.config_BFC63FC4
 *(.config_BFC63FC4)

.config_BFC63FC8
 *(.config_BFC63FC8)

.config_BFC63FCC
 *(.config_BFC63FCC)

.config_BFC63FDC
 *(.config_BFC63FDC)

.config_BFC63FEC
 *(.config_BFC63FEC)

.config_BFC63FF0
 *(.config_BFC63FF0)

.reset          0x00000000bfc00000      0x198
 *(.reset)
 .reset         0x00000000bfc00000       0x18 C:\Users\samec\AppData\Local\Temp\ccc4siZ0.o
                0x00000000bfc00000                _reset
 *(.reset.startup)
 .reset.startup
                0x00000000bfc00018      0x180 C:\Users\samec\AppData\Local\Temp\ccc4siZ0.o
                0x00000000bfc00018                _startup

.bev_excpt      0x00000000bfc00380       0x10
 *(.bev_handler)
 .bev_handler   0x00000000bfc00380       0x10 C:\Users\samec\AppData\Local\Temp\ccc4siZ0.o

.app_excpt      0x000000009d000180       0x10
 *(.gen_handler)
 .gen_handler   0x000000009d000180       0x10 C:\Users\samec\AppData\Local\Temp\ccc4siZ0.o

.vectors        0x000000009d000200       0xf0
                0x000000009d000200                . = ALIGN (0x4)
                0x00000000000002a8                __vector_offset_0 = DEFINED (__vector_dispatch_0)?(. - _ebase_address):__vector_offset_default
 *(.vector_0)
                0x000000009d000200                . = ALIGN (0x4)
                0x00000000000002a8                __vector_offset_1 = DEFINED (__vector_dispatch_1)?(. - _ebase_address):__vector_offset_default
 *(.vector_1)
                0x000000009d000200                . = ALIGN (0x4)
                0x00000000000002a8                __vector_offset_2 = DEFINED (__vector_dispatch_2)?(. - _ebase_address):__vector_offset_default
 *(.vector_2)
                0x000000009d000200                . = ALIGN (0x4)
                0x00000000000002a8                __vector_offset_3 = DEFINED (__vector_dispatch_3)?(. - _ebase_address):__vector_offset_default
 *(.vector_3)
                0x000000009d000200                . = ALIGN (0x4)
                0x0000000000000200                __vector_offset_4 = DEFINED (__vector_dispatch_4)?(. - _ebase_address):__vector_offset_default
 *(.vector_4)
 .vector_4      0x000000009d000200        0x8 lib\platformDepLib.X.a(platformInitTimer1.o)
                0x000000009d000200                __vector_dispatch_4
                0x000000009d000208                . = ALIGN (0x4)
                0x00000000000002a8                __vector_offset_5 = DEFINED (__vector_dispatch_5)?(. - _ebase_address):__vector_offset_default
 *(.vector_5)
                0x000000009d000208                . = ALIGN (0x4)
                0x00000000000002a8                __vector_offset_6 = DEFINED (__vector_dispatch_6)?(. - _ebase_address):__vector_offset_default
 *(.vector_6)
                0x000000009d000208                . = ALIGN (0x4)
                0x00000000000002a8                __vector_offset_7 = DEFINED (__vector_dispatch_7)?(. - _ebase_address):__vector_offset_default
 *(.vector_7)
                0x000000009d000208                . = ALIGN (0x4)
                0x00000000000002a8                __vector_offset_8 = DEFINED (__vector_dispatch_8)?(. - _ebase_address):__vector_offset_default
 *(.vector_8)
                0x000000009d000208                . = ALIGN (0x4)
                0x00000000000002a8                __vector_offset_9 = DEFINED (__vector_dispatch_9)?(. - _ebase_address):__vector_offset_default
 *(.vector_9)
                0x000000009d000208                . = ALIGN (0x4)
                0x00000000000002a8                __vector_offset_10 = DEFINED (__vector_dispatch_10)?(. - _ebase_address):__vector_offset_default
 *(.vector_10)
                0x000000009d000208                . = ALIGN (0x4)
                0x00000000000002a8                __vector_offset_11 = DEFINED (__vector_dispatch_11)?(. - _ebase_address):__vector_offset_default
 *(.vector_11)
                0x000000009d000208                . = ALIGN (0x4)
                0x00000000000002a8                __vector_offset_12 = DEFINED (__vector_dispatch_12)?(. - _ebase_address):__vector_offset_default
 *(.vector_12)
                0x000000009d000208                . = ALIGN (0x4)
                0x00000000000002a8                __vector_offset_13 = DEFINED (__vector_dispatch_13)?(. - _ebase_address):__vector_offset_default
 *(.vector_13)
                0x000000009d000208                . = ALIGN (0x4)
                0x00000000000002a8                __vector_offset_14 = DEFINED (__vector_dispatch_14)?(. - _ebase_address):__vector_offset_default
 *(.vector_14)
                0x000000009d000208                . = ALIGN (0x4)
                0x00000000000002a8                __vector_offset_15 = DEFINED (__vector_dispatch_15)?(. - _ebase_address):__vector_offset_default
 *(.vector_15)
                0x000000009d000208                . = ALIGN (0x4)
                0x00000000000002a8                __vector_offset_16 = DEFINED (__vector_dispatch_16)?(. - _ebase_address):__vector_offset_default
 *(.vector_16)
                0x000000009d000208                . = ALIGN (0x4)
                0x00000000000002a8                __vector_offset_17 = DEFINED (__vector_dispatch_17)?(. - _ebase_address):__vector_offset_default
 *(.vector_17)
                0x000000009d000208                . = ALIGN (0x4)
                0x00000000000002a8                __vector_offset_18 = DEFINED (__vector_dispatch_18)?(. - _ebase_address):__vector_offset_default
 *(.vector_18)
                0x000000009d000208                . = ALIGN (0x4)
                0x0000000000000208                __vector_offset_19 = DEFINED (__vector_dispatch_19)?(. - _ebase_address):__vector_offset_default
 *(.vector_19)
 .vector_19     0x000000009d000208        0x8 build/default/production/source/PWM.o
                0x000000009d000208                __vector_dispatch_19
                0x000000009d000210                . = ALIGN (0x4)
                0x00000000000002a8                __vector_offset_20 = DEFINED (__vector_dispatch_20)?(. - _ebase_address):__vector_offset_default
 *(.vector_20)
                0x000000009d000210                . = ALIGN (0x4)
                0x00000000000002a8                __vector_offset_21 = DEFINED (__vector_dispatch_21)?(. - _ebase_address):__vector_offset_default
 *(.vector_21)
                0x000000009d000210                . = ALIGN (0x4)
                0x00000000000002a8                __vector_offset_22 = DEFINED (__vector_dispatch_22)?(. - _ebase_address):__vector_offset_default
 *(.vector_22)
                0x000000009d000210                . = ALIGN (0x4)
                0x00000000000002a8                __vector_offset_23 = DEFINED (__vector_dispatch_23)?(. - _ebase_address):__vector_offset_default
 *(.vector_23)
                0x000000009d000210                . = ALIGN (0x4)
                0x00000000000002a8                __vector_offset_24 = DEFINED (__vector_dispatch_24)?(. - _ebase_address):__vector_offset_default
 *(.vector_24)
                0x000000009d000210                . = ALIGN (0x4)
                0x00000000000002a8                __vector_offset_25 = DEFINED (__vector_dispatch_25)?(. - _ebase_address):__vector_offset_default
 *(.vector_25)
                0x000000009d000210                . = ALIGN (0x4)
                0x00000000000002a8                __vector_offset_26 = DEFINED (__vector_dispatch_26)?(. - _ebase_address):__vector_offset_default
 *(.vector_26)
                0x000000009d000210                . = ALIGN (0x4)
                0x00000000000002a8                __vector_offset_27 = DEFINED (__vector_dispatch_27)?(. - _ebase_address):__vector_offset_default
 *(.vector_27)
                0x000000009d000210                . = ALIGN (0x4)
                0x00000000000002a8                __vector_offset_28 = DEFINED (__vector_dispatch_28)?(. - _ebase_address):__vector_offset_default
 *(.vector_28)
                0x000000009d000210                . = ALIGN (0x4)
                0x00000000000002a8                __vector_offset_29 = DEFINED (__vector_dispatch_29)?(. - _ebase_address):__vector_offset_default
 *(.vector_29)
                0x000000009d000210                . = ALIGN (0x4)
                0x00000000000002a8                __vector_offset_30 = DEFINED (__vector_dispatch_30)?(. - _ebase_address):__vector_offset_default
 *(.vector_30)
                0x000000009d000210                . = ALIGN (0x4)
                0x00000000000002a8                __vector_offset_31 = DEFINED (__vector_dispatch_31)?(. - _ebase_address):__vector_offset_default
 *(.vector_31)
                0x000000009d000210                . = ALIGN (0x4)
                0x00000000000002a8                __vector_offset_32 = DEFINED (__vector_dispatch_32)?(. - _ebase_address):__vector_offset_default
 *(.vector_32)
                0x000000009d000210                . = ALIGN (0x4)
                0x00000000000002a8                __vector_offset_33 = DEFINED (__vector_dispatch_33)?(. - _ebase_address):__vector_offset_default
 *(.vector_33)
                0x000000009d000210                . = ALIGN (0x4)
                0x00000000000002a8                __vector_offset_34 = DEFINED (__vector_dispatch_34)?(. - _ebase_address):__vector_offset_default
 *(.vector_34)
                0x000000009d000210                . = ALIGN (0x4)
                0x00000000000002a8                __vector_offset_35 = DEFINED (__vector_dispatch_35)?(. - _ebase_address):__vector_offset_default
 *(.vector_35)
                0x000000009d000210                . = ALIGN (0x4)
                0x00000000000002a8                __vector_offset_36 = DEFINED (__vector_dispatch_36)?(. - _ebase_address):__vector_offset_default
 *(.vector_36)
                0x000000009d000210                . = ALIGN (0x4)
                0x00000000000002a8                __vector_offset_37 = DEFINED (__vector_dispatch_37)?(. - _ebase_address):__vector_offset_default
 *(.vector_37)
                0x000000009d000210                . = ALIGN (0x4)
                0x00000000000002a8                __vector_offset_38 = DEFINED (__vector_dispatch_38)?(. - _ebase_address):__vector_offset_default
 *(.vector_38)
                0x000000009d000210                . = ALIGN (0x4)
                0x0000000000000210                __vector_offset_39 = DEFINED (__vector_dispatch_39)?(. - _ebase_address):__vector_offset_default
 *(.vector_39)
 .vector_39     0x000000009d000210        0x8 lib\platformDepLib.X.a(messengerDuoUSB.o)
                0x000000009d000210                __vector_dispatch_39
                0x000000009d000218                . = ALIGN (0x4)
                0x0000000000000218                __vector_offset_40 = DEFINED (__vector_dispatch_40)?(. - _ebase_address):__vector_offset_default
 *(.vector_40)
 .vector_40     0x000000009d000218        0x8 lib\platformDepLib.X.a(messengerDuoUSB.o)
                0x000000009d000218                __vector_dispatch_40
                0x000000009d000220                . = ALIGN (0x4)
                0x00000000000002a8                __vector_offset_41 = DEFINED (__vector_dispatch_41)?(. - _ebase_address):__vector_offset_default
 *(.vector_41)
                0x000000009d000220                . = ALIGN (0x4)
                0x00000000000002a8                __vector_offset_42 = DEFINED (__vector_dispatch_42)?(. - _ebase_address):__vector_offset_default
 *(.vector_42)
                0x000000009d000220                . = ALIGN (0x4)
                0x00000000000002a8                __vector_offset_43 = DEFINED (__vector_dispatch_43)?(. - _ebase_address):__vector_offset_default
 *(.vector_43)
                0x000000009d000220                . = ALIGN (0x4)
                0x00000000000002a8                __vector_offset_44 = DEFINED (__vector_dispatch_44)?(. - _ebase_address):__vector_offset_default
 *(.vector_44)
                0x000000009d000220                . = ALIGN (0x4)
                0x00000000000002a8                __vector_offset_45 = DEFINED (__vector_dispatch_45)?(. - _ebase_address):__vector_offset_default
 *(.vector_45)
                0x000000009d000220                . = ALIGN (0x4)
                0x00000000000002a8                __vector_offset_46 = DEFINED (__vector_dispatch_46)?(. - _ebase_address):__vector_offset_default
 *(.vector_46)
                0x000000009d000220                . = ALIGN (0x4)
                0x00000000000002a8                __vector_offset_47 = DEFINED (__vector_dispatch_47)?(. - _ebase_address):__vector_offset_default
 *(.vector_47)
                0x000000009d000220                . = ALIGN (0x4)
                0x00000000000002a8                __vector_offset_48 = DEFINED (__vector_dispatch_48)?(. - _ebase_address):__vector_offset_default
 *(.vector_48)
                0x000000009d000220                . = ALIGN (0x4)
                0x00000000000002a8                __vector_offset_49 = DEFINED (__vector_dispatch_49)?(. - _ebase_address):__vector_offset_default
 *(.vector_49)
                0x000000009d000220                . = ALIGN (0x4)
                0x00000000000002a8                __vector_offset_50 = DEFINED (__vector_dispatch_50)?(. - _ebase_address):__vector_offset_default
 *(.vector_50)
                0x000000009d000220                . = ALIGN (0x4)
                0x00000000000002a8                __vector_offset_51 = DEFINED (__vector_dispatch_51)?(. - _ebase_address):__vector_offset_default
 *(.vector_51)
                0x000000009d000220                . = ALIGN (0x4)
                0x00000000000002a8                __vector_offset_52 = DEFINED (__vector_dispatch_52)?(. - _ebase_address):__vector_offset_default
 *(.vector_52)
                0x000000009d000220                . = ALIGN (0x4)
                0x00000000000002a8                __vector_offset_53 = DEFINED (__vector_dispatch_53)?(. - _ebase_address):__vector_offset_default
 *(.vector_53)
                0x000000009d000220                . = ALIGN (0x4)
                0x00000000000002a8                __vector_offset_54 = DEFINED (__vector_dispatch_54)?(. - _ebase_address):__vector_offset_default
 *(.vector_54)
                0x000000009d000220                . = ALIGN (0x4)
                0x00000000000002a8                __vector_offset_55 = DEFINED (__vector_dispatch_55)?(. - _ebase_address):__vector_offset_default
 *(.vector_55)
                0x000000009d000220                . = ALIGN (0x4)
                0x00000000000002a8                __vector_offset_56 = DEFINED (__vector_dispatch_56)?(. - _ebase_address):__vector_offset_default
 *(.vector_56)
                0x000000009d000220                . = ALIGN (0x4)
                0x00000000000002a8                __vector_offset_57 = DEFINED (__vector_dispatch_57)?(. - _ebase_address):__vector_offset_default
 *(.vector_57)
                0x000000009d000220                . = ALIGN (0x4)
                0x00000000000002a8                __vector_offset_58 = DEFINED (__vector_dispatch_58)?(. - _ebase_address):__vector_offset_default
 *(.vector_58)
                0x000000009d000220                . = ALIGN (0x4)
                0x00000000000002a8                __vector_offset_59 = DEFINED (__vector_dispatch_59)?(. - _ebase_address):__vector_offset_default
 *(.vector_59)
                0x000000009d000220                . = ALIGN (0x4)
                0x00000000000002a8                __vector_offset_60 = DEFINED (__vector_dispatch_60)?(. - _ebase_address):__vector_offset_default
 *(.vector_60)
                0x000000009d000220                . = ALIGN (0x4)
                0x00000000000002a8                __vector_offset_61 = DEFINED (__vector_dispatch_61)?(. - _ebase_address):__vector_offset_default
 *(.vector_61)
                0x000000009d000220                . = ALIGN (0x4)
                0x0000000000000220                __vector_offset_62 = DEFINED (__vector_dispatch_62)?(. - _ebase_address):__vector_offset_default
 *(.vector_62)
 .vector_62     0x000000009d000220        0x8 lib\platformDepLib.X.a(mesengerDuoUART.o)
                0x000000009d000220                __vector_dispatch_62
                0x000000009d000228                . = ALIGN (0x4)
                0x0000000000000228                __vector_offset_63 = DEFINED (__vector_dispatch_63)?(. - _ebase_address):__vector_offset_default
 *(.vector_63)
 .vector_63     0x000000009d000228        0x8 lib\platformDepLib.X.a(mesengerDuoUART.o)
                0x000000009d000228                __vector_dispatch_63
                0x000000009d000230                . = ALIGN (0x4)
                0x0000000000000230                __vector_offset_64 = DEFINED (__vector_dispatch_64)?(. - _ebase_address):__vector_offset_default
 *(.vector_64)
 .vector_64     0x000000009d000230        0x8 lib\platformDepLib.X.a(mesengerDuoUART.o)
                0x000000009d000230                __vector_dispatch_64
                0x000000009d000238                . = ALIGN (0x4)
                0x00000000000002a8                __vector_offset_65 = DEFINED (__vector_dispatch_65)?(. - _ebase_address):__vector_offset_default
 *(.vector_65)
                0x000000009d000238                . = ALIGN (0x4)
                0x00000000000002a8                __vector_offset_66 = DEFINED (__vector_dispatch_66)?(. - _ebase_address):__vector_offset_default
 *(.vector_66)
                0x000000009d000238                . = ALIGN (0x4)
                0x00000000000002a8                __vector_offset_67 = DEFINED (__vector_dispatch_67)?(. - _ebase_address):__vector_offset_default
 *(.vector_67)
                0x000000009d000238                . = ALIGN (0x4)
                0x00000000000002a8                __vector_offset_68 = DEFINED (__vector_dispatch_68)?(. - _ebase_address):__vector_offset_default
 *(.vector_68)
                0x000000009d000238                . = ALIGN (0x4)
                0x00000000000002a8                __vector_offset_69 = DEFINED (__vector_dispatch_69)?(. - _ebase_address):__vector_offset_default
 *(.vector_69)
                0x000000009d000238                . = ALIGN (0x4)
                0x00000000000002a8                __vector_offset_70 = DEFINED (__vector_dispatch_70)?(. - _ebase_address):__vector_offset_default
 *(.vector_70)
                0x000000009d000238                . = ALIGN (0x4)
                0x00000000000002a8                __vector_offset_71 = DEFINED (__vector_dispatch_71)?(. - _ebase_address):__vector_offset_default
 *(.vector_71)
                0x000000009d000238                . = ALIGN (0x4)
                0x00000000000002a8                __vector_offset_72 = DEFINED (__vector_dispatch_72)?(. - _ebase_address):__vector_offset_default
 *(.vector_72)
                0x000000009d000238                . = ALIGN (0x4)
                0x00000000000002a8                __vector_offset_73 = DEFINED (__vector_dispatch_73)?(. - _ebase_address):__vector_offset_default
 *(.vector_73)
                0x000000009d000238                . = ALIGN (0x4)
                0x00000000000002a8                __vector_offset_74 = DEFINED (__vector_dispatch_74)?(. - _ebase_address):__vector_offset_default
 *(.vector_74)
                0x000000009d000238                . = ALIGN (0x4)
                0x00000000000002a8                __vector_offset_75 = DEFINED (__vector_dispatch_75)?(. - _ebase_address):__vector_offset_default
 *(.vector_75)
                0x000000009d000238                . = ALIGN (0x4)
                0x00000000000002a8                __vector_offset_76 = DEFINED (__vector_dispatch_76)?(. - _ebase_address):__vector_offset_default
 *(.vector_76)
                0x000000009d000238                . = ALIGN (0x4)
                0x00000000000002a8                __vector_offset_77 = DEFINED (__vector_dispatch_77)?(. - _ebase_address):__vector_offset_default
 *(.vector_77)
                0x000000009d000238                . = ALIGN (0x4)
                0x00000000000002a8                __vector_offset_78 = DEFINED (__vector_dispatch_78)?(. - _ebase_address):__vector_offset_default
 *(.vector_78)
                0x000000009d000238                . = ALIGN (0x4)
                0x00000000000002a8                __vector_offset_79 = DEFINED (__vector_dispatch_79)?(. - _ebase_address):__vector_offset_default
 *(.vector_79)
                0x000000009d000238                . = ALIGN (0x4)
                0x00000000000002a8                __vector_offset_80 = DEFINED (__vector_dispatch_80)?(. - _ebase_address):__vector_offset_default
 *(.vector_80)
                0x000000009d000238                . = ALIGN (0x4)
                0x0000000000000238                __vector_offset_81 = DEFINED (__vector_dispatch_81)?(. - _ebase_address):__vector_offset_default
 *(.vector_81)
 .vector_81     0x000000009d000238        0x8 build/default/production/source/Capture.o
                0x000000009d000238                __vector_dispatch_81
                0x000000009d000240                . = ALIGN (0x4)
                0x0000000000000240                __vector_offset_82 = DEFINED (__vector_dispatch_82)?(. - _ebase_address):__vector_offset_default
 *(.vector_82)
 .vector_82     0x000000009d000240        0x8 build/default/production/source/Capture.o
                0x000000009d000240                __vector_dispatch_82
                0x000000009d000248                . = ALIGN (0x4)
                0x00000000000002a8                __vector_offset_83 = DEFINED (__vector_dispatch_83)?(. - _ebase_address):__vector_offset_default
 *(.vector_83)
                0x000000009d000248                . = ALIGN (0x4)
                0x0000000000000248                __vector_offset_84 = DEFINED (__vector_dispatch_84)?(. - _ebase_address):__vector_offset_default
 *(.vector_84)
 .vector_84     0x000000009d000248        0x8 lib\platformDepLib.X.a(platformInitTimer8.o)
                0x000000009d000248                __vector_dispatch_84
                0x000000009d000250                . = ALIGN (0x4)
                0x00000000000002a8                __vector_offset_85 = DEFINED (__vector_dispatch_85)?(. - _ebase_address):__vector_offset_default
 *(.vector_85)
                0x000000009d000250                . = ALIGN (0x4)
                0x00000000000002a8                __vector_offset_86 = DEFINED (__vector_dispatch_86)?(. - _ebase_address):__vector_offset_default
 *(.vector_86)
                0x000000009d000250                . = ALIGN (0x4)
                0x00000000000002a8                __vector_offset_87 = DEFINED (__vector_dispatch_87)?(. - _ebase_address):__vector_offset_default
 *(.vector_87)
                0x000000009d000250                . = ALIGN (0x4)
                0x0000000000000250                __vector_offset_88 = DEFINED (__vector_dispatch_88)?(. - _ebase_address):__vector_offset_default
 *(.vector_88)
 .vector_88     0x000000009d000250        0x8 build/default/production/source/Capture.o
                0x000000009d000250                __vector_dispatch_88
                0x000000009d000258                . = ALIGN (0x4)
                0x00000000000002a8                __vector_offset_89 = DEFINED (__vector_dispatch_89)?(. - _ebase_address):__vector_offset_default
 *(.vector_89)
                0x000000009d000258                . = ALIGN (0x4)
                0x00000000000002a8                __vector_offset_90 = DEFINED (__vector_dispatch_90)?(. - _ebase_address):__vector_offset_default
 *(.vector_90)
                0x000000009d000258                . = ALIGN (0x4)
                0x00000000000002a8                __vector_offset_91 = DEFINED (__vector_dispatch_91)?(. - _ebase_address):__vector_offset_default
 *(.vector_91)
                0x000000009d000258                . = ALIGN (0x4)
                0x00000000000002a8                __vector_offset_92 = DEFINED (__vector_dispatch_92)?(. - _ebase_address):__vector_offset_default
 *(.vector_92)
                0x000000009d000258                . = ALIGN (0x4)
                0x00000000000002a8                __vector_offset_93 = DEFINED (__vector_dispatch_93)?(. - _ebase_address):__vector_offset_default
 *(.vector_93)
                0x000000009d000258                . = ALIGN (0x4)
                0x0000000000000258                __vector_offset_94 = DEFINED (__vector_dispatch_94)?(. - _ebase_address):__vector_offset_default
 *(.vector_94)
 .vector_94     0x000000009d000258        0x8 lib\platformDepLib.X.a(platformInitAdc.o)
                0x000000009d000258                __vector_dispatch_94
                0x000000009d000260                . = ALIGN (0x4)
                0x00000000000002a8                __vector_offset_95 = DEFINED (__vector_dispatch_95)?(. - _ebase_address):__vector_offset_default
 *(.vector_95)
                0x000000009d000260                . = ALIGN (0x4)
                0x0000000000000260                __vector_offset_96 = DEFINED (__vector_dispatch_96)?(. - _ebase_address):__vector_offset_default
 *(.vector_96)
 .vector_96     0x000000009d000260        0x8 lib\platformDepLib.X.a(platformInitAdc.o)
                0x000000009d000260                __vector_dispatch_96
                0x000000009d000268                . = ALIGN (0x4)
                0x0000000000000268                __vector_offset_97 = DEFINED (__vector_dispatch_97)?(. - _ebase_address):__vector_offset_default
 *(.vector_97)
 .vector_97     0x000000009d000268        0x8 lib\platformDepLib.X.a(platformInitAdc.o)
                0x000000009d000268                __vector_dispatch_97
                0x000000009d000270                . = ALIGN (0x4)
                0x0000000000000270                __vector_offset_98 = DEFINED (__vector_dispatch_98)?(. - _ebase_address):__vector_offset_default
 *(.vector_98)
 .vector_98     0x000000009d000270        0x8 lib\platformDepLib.X.a(platformInitAdc.o)
                0x000000009d000270                __vector_dispatch_98
                0x000000009d000278                . = ALIGN (0x4)
                0x00000000000002a8                __vector_offset_99 = DEFINED (__vector_dispatch_99)?(. - _ebase_address):__vector_offset_default
 *(.vector_99)
                0x000000009d000278                . = ALIGN (0x4)
                0x00000000000002a8                __vector_offset_100 = DEFINED (__vector_dispatch_100)?(. - _ebase_address):__vector_offset_default
 *(.vector_100)
                0x000000009d000278                . = ALIGN (0x4)
                0x00000000000002a8                __vector_offset_101 = DEFINED (__vector_dispatch_101)?(. - _ebase_address):__vector_offset_default
 *(.vector_101)
                0x000000009d000278                . = ALIGN (0x4)
                0x00000000000002a8                __vector_offset_102 = DEFINED (__vector_dispatch_102)?(. - _ebase_address):__vector_offset_default
 *(.vector_102)
                0x000000009d000278                . = ALIGN (0x4)
                0x00000000000002a8                __vector_offset_103 = DEFINED (__vector_dispatch_103)?(. - _ebase_address):__vector_offset_default
 *(.vector_103)
                0x000000009d000278                . = ALIGN (0x4)
                0x00000000000002a8                __vector_offset_104 = DEFINED (__vector_dispatch_104)?(. - _ebase_address):__vector_offset_default
 *(.vector_104)
                0x000000009d000278                . = ALIGN (0x4)
                0x00000000000002a8                __vector_offset_105 = DEFINED (__vector_dispatch_105)?(. - _ebase_address):__vector_offset_default
 *(.vector_105)
                0x000000009d000278                . = ALIGN (0x4)
                0x00000000000002a8                __vector_offset_106 = DEFINED (__vector_dispatch_106)?(. - _ebase_address):__vector_offset_default
 *(.vector_106)
                0x000000009d000278                . = ALIGN (0x4)
                0x0000000000000278                __vector_offset_107 = DEFINED (__vector_dispatch_107)?(. - _ebase_address):__vector_offset_default
 *(.vector_107)
 .vector_107    0x000000009d000278        0x8 lib\platformDepLib.X.a(platformInitAdc.o)
                0x000000009d000278                __vector_dispatch_107
                0x000000009d000280                . = ALIGN (0x4)
                0x0000000000000280                __vector_offset_108 = DEFINED (__vector_dispatch_108)?(. - _ebase_address):__vector_offset_default
 *(.vector_108)
 .vector_108    0x000000009d000280        0x8 lib\platformDepLib.X.a(platformInitAdc.o)
                0x000000009d000280                __vector_dispatch_108
                0x000000009d000288                . = ALIGN (0x4)
                0x0000000000000288                __vector_offset_109 = DEFINED (__vector_dispatch_109)?(. - _ebase_address):__vector_offset_default
 *(.vector_109)
 .vector_109    0x000000009d000288        0x8 lib\platformDepLib.X.a(platformInitAdc.o)
                0x000000009d000288                __vector_dispatch_109
                0x000000009d000290                . = ALIGN (0x4)
                0x00000000000002a8                __vector_offset_110 = DEFINED (__vector_dispatch_110)?(. - _ebase_address):__vector_offset_default
 *(.vector_110)
                0x000000009d000290                . = ALIGN (0x4)
                0x00000000000002a8                __vector_offset_111 = DEFINED (__vector_dispatch_111)?(. - _ebase_address):__vector_offset_default
 *(.vector_111)
                0x000000009d000290                . = ALIGN (0x4)
                0x00000000000002a8                __vector_offset_112 = DEFINED (__vector_dispatch_112)?(. - _ebase_address):__vector_offset_default
 *(.vector_112)
                0x000000009d000290                . = ALIGN (0x4)
                0x00000000000002a8                __vector_offset_113 = DEFINED (__vector_dispatch_113)?(. - _ebase_address):__vector_offset_default
 *(.vector_113)
                0x000000009d000290                . = ALIGN (0x4)
                0x00000000000002a8                __vector_offset_114 = DEFINED (__vector_dispatch_114)?(. - _ebase_address):__vector_offset_default
 *(.vector_114)
                0x000000009d000290                . = ALIGN (0x4)
                0x00000000000002a8                __vector_offset_115 = DEFINED (__vector_dispatch_115)?(. - _ebase_address):__vector_offset_default
 *(.vector_115)
                0x000000009d000290                . = ALIGN (0x4)
                0x00000000000002a8                __vector_offset_116 = DEFINED (__vector_dispatch_116)?(. - _ebase_address):__vector_offset_default
 *(.vector_116)
                0x000000009d000290                . = ALIGN (0x4)
                0x00000000000002a8                __vector_offset_117 = DEFINED (__vector_dispatch_117)?(. - _ebase_address):__vector_offset_default
 *(.vector_117)
                0x000000009d000290                . = ALIGN (0x4)
                0x00000000000002a8                __vector_offset_118 = DEFINED (__vector_dispatch_118)?(. - _ebase_address):__vector_offset_default
 *(.vector_118)
                0x000000009d000290                . = ALIGN (0x4)
                0x00000000000002a8                __vector_offset_119 = DEFINED (__vector_dispatch_119)?(. - _ebase_address):__vector_offset_default
 *(.vector_119)
                0x000000009d000290                . = ALIGN (0x4)
                0x00000000000002a8                __vector_offset_120 = DEFINED (__vector_dispatch_120)?(. - _ebase_address):__vector_offset_default
 *(.vector_120)
                0x000000009d000290                . = ALIGN (0x4)
                0x00000000000002a8                __vector_offset_121 = DEFINED (__vector_dispatch_121)?(. - _ebase_address):__vector_offset_default
 *(.vector_121)
                0x000000009d000290                . = ALIGN (0x4)
                0x00000000000002a8                __vector_offset_122 = DEFINED (__vector_dispatch_122)?(. - _ebase_address):__vector_offset_default
 *(.vector_122)
                0x000000009d000290                . = ALIGN (0x4)
                0x00000000000002a8                __vector_offset_123 = DEFINED (__vector_dispatch_123)?(. - _ebase_address):__vector_offset_default
 *(.vector_123)
                0x000000009d000290                . = ALIGN (0x4)
                0x00000000000002a8                __vector_offset_124 = DEFINED (__vector_dispatch_124)?(. - _ebase_address):__vector_offset_default
 *(.vector_124)
                0x000000009d000290                . = ALIGN (0x4)
                0x00000000000002a8                __vector_offset_125 = DEFINED (__vector_dispatch_125)?(. - _ebase_address):__vector_offset_default
 *(.vector_125)
                0x000000009d000290                . = ALIGN (0x4)
                0x00000000000002a8                __vector_offset_126 = DEFINED (__vector_dispatch_126)?(. - _ebase_address):__vector_offset_default
 *(.vector_126)
                0x000000009d000290                . = ALIGN (0x4)
                0x00000000000002a8                __vector_offset_127 = DEFINED (__vector_dispatch_127)?(. - _ebase_address):__vector_offset_default
 *(.vector_127)
                0x000000009d000290                . = ALIGN (0x4)
                0x00000000000002a8                __vector_offset_128 = DEFINED (__vector_dispatch_128)?(. - _ebase_address):__vector_offset_default
 *(.vector_128)
                0x000000009d000290                . = ALIGN (0x4)
                0x00000000000002a8                __vector_offset_129 = DEFINED (__vector_dispatch_129)?(. - _ebase_address):__vector_offset_default
 *(.vector_129)
                0x000000009d000290                . = ALIGN (0x4)
                0x00000000000002a8                __vector_offset_130 = DEFINED (__vector_dispatch_130)?(. - _ebase_address):__vector_offset_default
 *(.vector_130)
                0x000000009d000290                . = ALIGN (0x4)
                0x00000000000002a8                __vector_offset_131 = DEFINED (__vector_dispatch_131)?(. - _ebase_address):__vector_offset_default
 *(.vector_131)
                0x000000009d000290                . = ALIGN (0x4)
                0x00000000000002a8                __vector_offset_132 = DEFINED (__vector_dispatch_132)?(. - _ebase_address):__vector_offset_default
 *(.vector_132)
                0x000000009d000290                . = ALIGN (0x4)
                0x00000000000002a8                __vector_offset_133 = DEFINED (__vector_dispatch_133)?(. - _ebase_address):__vector_offset_default
 *(.vector_133)
                0x000000009d000290                . = ALIGN (0x4)
                0x00000000000002a8                __vector_offset_134 = DEFINED (__vector_dispatch_134)?(. - _ebase_address):__vector_offset_default
 *(.vector_134)
                0x000000009d000290                . = ALIGN (0x4)
                0x00000000000002a8                __vector_offset_135 = DEFINED (__vector_dispatch_135)?(. - _ebase_address):__vector_offset_default
 *(.vector_135)
                0x000000009d000290                . = ALIGN (0x4)
                0x00000000000002a8                __vector_offset_136 = DEFINED (__vector_dispatch_136)?(. - _ebase_address):__vector_offset_default
 *(.vector_136)
                0x000000009d000290                . = ALIGN (0x4)
                0x00000000000002a8                __vector_offset_137 = DEFINED (__vector_dispatch_137)?(. - _ebase_address):__vector_offset_default
 *(.vector_137)
                0x000000009d000290                . = ALIGN (0x4)
                0x00000000000002a8                __vector_offset_138 = DEFINED (__vector_dispatch_138)?(. - _ebase_address):__vector_offset_default
 *(.vector_138)
                0x000000009d000290                . = ALIGN (0x4)
                0x00000000000002a8                __vector_offset_139 = DEFINED (__vector_dispatch_139)?(. - _ebase_address):__vector_offset_default
 *(.vector_139)
                0x000000009d000290                . = ALIGN (0x4)
                0x00000000000002a8                __vector_offset_140 = DEFINED (__vector_dispatch_140)?(. - _ebase_address):__vector_offset_default
 *(.vector_140)
                0x000000009d000290                . = ALIGN (0x4)
                0x00000000000002a8                __vector_offset_141 = DEFINED (__vector_dispatch_141)?(. - _ebase_address):__vector_offset_default
 *(.vector_141)
                0x000000009d000290                . = ALIGN (0x4)
                0x00000000000002a8                __vector_offset_142 = DEFINED (__vector_dispatch_142)?(. - _ebase_address):__vector_offset_default
 *(.vector_142)
                0x000000009d000290                . = ALIGN (0x4)
                0x00000000000002a8                __vector_offset_143 = DEFINED (__vector_dispatch_143)?(. - _ebase_address):__vector_offset_default
 *(.vector_143)
                0x000000009d000290                . = ALIGN (0x4)
                0x00000000000002a8                __vector_offset_144 = DEFINED (__vector_dispatch_144)?(. - _ebase_address):__vector_offset_default
 *(.vector_144)
                0x000000009d000290                . = ALIGN (0x4)
                0x00000000000002a8                __vector_offset_145 = DEFINED (__vector_dispatch_145)?(. - _ebase_address):__vector_offset_default
 *(.vector_145)
                0x000000009d000290                . = ALIGN (0x4)
                0x00000000000002a8                __vector_offset_146 = DEFINED (__vector_dispatch_146)?(. - _ebase_address):__vector_offset_default
 *(.vector_146)
                0x000000009d000290                . = ALIGN (0x4)
                0x00000000000002a8                __vector_offset_147 = DEFINED (__vector_dispatch_147)?(. - _ebase_address):__vector_offset_default
 *(.vector_147)
                0x000000009d000290                . = ALIGN (0x4)
                0x00000000000002a8                __vector_offset_148 = DEFINED (__vector_dispatch_148)?(. - _ebase_address):__vector_offset_default
 *(.vector_148)
                0x000000009d000290                . = ALIGN (0x4)
                0x00000000000002a8                __vector_offset_149 = DEFINED (__vector_dispatch_149)?(. - _ebase_address):__vector_offset_default
 *(.vector_149)
                0x000000009d000290                . = ALIGN (0x4)
                0x00000000000002a8                __vector_offset_150 = DEFINED (__vector_dispatch_150)?(. - _ebase_address):__vector_offset_default
 *(.vector_150)
                0x000000009d000290                . = ALIGN (0x4)
                0x00000000000002a8                __vector_offset_151 = DEFINED (__vector_dispatch_151)?(. - _ebase_address):__vector_offset_default
 *(.vector_151)
                0x000000009d000290                . = ALIGN (0x4)
                0x00000000000002a8                __vector_offset_152 = DEFINED (__vector_dispatch_152)?(. - _ebase_address):__vector_offset_default
 *(.vector_152)
                0x000000009d000290                . = ALIGN (0x4)
                0x00000000000002a8                __vector_offset_153 = DEFINED (__vector_dispatch_153)?(. - _ebase_address):__vector_offset_default
 *(.vector_153)
                0x000000009d000290                . = ALIGN (0x4)
                0x00000000000002a8                __vector_offset_154 = DEFINED (__vector_dispatch_154)?(. - _ebase_address):__vector_offset_default
 *(.vector_154)
                0x000000009d000290                . = ALIGN (0x4)
                0x00000000000002a8                __vector_offset_155 = DEFINED (__vector_dispatch_155)?(. - _ebase_address):__vector_offset_default
 *(.vector_155)
                0x000000009d000290                . = ALIGN (0x4)
                0x00000000000002a8                __vector_offset_156 = DEFINED (__vector_dispatch_156)?(. - _ebase_address):__vector_offset_default
 *(.vector_156)
                0x000000009d000290                . = ALIGN (0x4)
                0x00000000000002a8                __vector_offset_157 = DEFINED (__vector_dispatch_157)?(. - _ebase_address):__vector_offset_default
 *(.vector_157)
                0x000000009d000290                . = ALIGN (0x4)
                0x00000000000002a8                __vector_offset_158 = DEFINED (__vector_dispatch_158)?(. - _ebase_address):__vector_offset_default
 *(.vector_158)
                0x000000009d000290                . = ALIGN (0x4)
                0x00000000000002a8                __vector_offset_159 = DEFINED (__vector_dispatch_159)?(. - _ebase_address):__vector_offset_default
 *(.vector_159)
                0x000000009d000290                . = ALIGN (0x4)
                0x00000000000002a8                __vector_offset_160 = DEFINED (__vector_dispatch_160)?(. - _ebase_address):__vector_offset_default
 *(.vector_160)
                0x000000009d000290                . = ALIGN (0x4)
                0x00000000000002a8                __vector_offset_161 = DEFINED (__vector_dispatch_161)?(. - _ebase_address):__vector_offset_default
 *(.vector_161)
                0x000000009d000290                . = ALIGN (0x4)
                0x00000000000002a8                __vector_offset_162 = DEFINED (__vector_dispatch_162)?(. - _ebase_address):__vector_offset_default
 *(.vector_162)
                0x000000009d000290                . = ALIGN (0x4)
                0x00000000000002a8                __vector_offset_163 = DEFINED (__vector_dispatch_163)?(. - _ebase_address):__vector_offset_default
 *(.vector_163)
                0x000000009d000290                . = ALIGN (0x4)
                0x0000000000000290                __vector_offset_164 = DEFINED (__vector_dispatch_164)?(. - _ebase_address):__vector_offset_default
 *(.vector_164)
 .vector_164    0x000000009d000290        0x8 lib\platformDepLib.X.a(mesengerDuoUART.o)
                0x000000009d000290                __vector_dispatch_164
                0x000000009d000298                . = ALIGN (0x4)
                0x0000000000000298                __vector_offset_165 = DEFINED (__vector_dispatch_165)?(. - _ebase_address):__vector_offset_default
 *(.vector_165)
 .vector_165    0x000000009d000298        0x8 lib\platformDepLib.X.a(mesengerDuoUART.o)
                0x000000009d000298                __vector_dispatch_165
                0x000000009d0002a0                . = ALIGN (0x4)
                0x00000000000002a0                __vector_offset_166 = DEFINED (__vector_dispatch_166)?(. - _ebase_address):__vector_offset_default
 *(.vector_166)
 .vector_166    0x000000009d0002a0        0x8 lib\platformDepLib.X.a(mesengerDuoUART.o)
                0x000000009d0002a0                __vector_dispatch_166
                0x000000009d0002a8                . = ALIGN (0x4)
                0x00000000000002a8                __vector_offset_167 = DEFINED (__vector_dispatch_167)?(. - _ebase_address):__vector_offset_default
 *(.vector_167)
                0x000000009d0002a8                . = ALIGN (0x4)
                0x00000000000002a8                __vector_offset_168 = DEFINED (__vector_dispatch_168)?(. - _ebase_address):__vector_offset_default
 *(.vector_168)
                0x000000009d0002a8                . = ALIGN (0x4)
                0x00000000000002a8                __vector_offset_169 = DEFINED (__vector_dispatch_169)?(. - _ebase_address):__vector_offset_default
 *(.vector_169)
                0x000000009d0002a8                . = ALIGN (0x4)
                0x00000000000002a8                __vector_offset_170 = DEFINED (__vector_dispatch_170)?(. - _ebase_address):__vector_offset_default
 *(.vector_170)
                0x000000009d0002a8                . = ALIGN (0x4)
                0x00000000000002a8                __vector_offset_171 = DEFINED (__vector_dispatch_171)?(. - _ebase_address):__vector_offset_default
 *(.vector_171)
                0x000000009d0002a8                . = ALIGN (0x4)
                0x00000000000002a8                __vector_offset_172 = DEFINED (__vector_dispatch_172)?(. - _ebase_address):__vector_offset_default
 *(.vector_172)
                0x000000009d0002a8                . = ALIGN (0x4)
                0x00000000000002a8                __vector_offset_173 = DEFINED (__vector_dispatch_173)?(. - _ebase_address):__vector_offset_default
 *(.vector_173)
                0x000000009d0002a8                . = ALIGN (0x4)
                0x00000000000002a8                __vector_offset_174 = DEFINED (__vector_dispatch_174)?(. - _ebase_address):__vector_offset_default
 *(.vector_174)
                0x000000009d0002a8                . = ALIGN (0x4)
                0x00000000000002a8                __vector_offset_175 = DEFINED (__vector_dispatch_175)?(. - _ebase_address):__vector_offset_default
 *(.vector_175)
                0x000000009d0002a8                . = ALIGN (0x4)
                0x00000000000002a8                __vector_offset_176 = DEFINED (__vector_dispatch_176)?(. - _ebase_address):__vector_offset_default
 *(.vector_176)
                0x000000009d0002a8                . = ALIGN (0x4)
                0x00000000000002a8                __vector_offset_177 = DEFINED (__vector_dispatch_177)?(. - _ebase_address):__vector_offset_default
 *(.vector_177)
                0x000000009d0002a8                . = ALIGN (0x4)
                0x00000000000002a8                __vector_offset_178 = DEFINED (__vector_dispatch_178)?(. - _ebase_address):__vector_offset_default
 *(.vector_178)
                0x000000009d0002a8                . = ALIGN (0x4)
                0x00000000000002a8                __vector_offset_179 = DEFINED (__vector_dispatch_179)?(. - _ebase_address):__vector_offset_default
 *(.vector_179)
                0x000000009d0002a8                . = ALIGN (0x4)
                0x00000000000002a8                __vector_offset_180 = DEFINED (__vector_dispatch_180)?(. - _ebase_address):__vector_offset_default
 *(.vector_180)
                0x000000009d0002a8                . = ALIGN (0x4)
                0x00000000000002a8                __vector_offset_181 = DEFINED (__vector_dispatch_181)?(. - _ebase_address):__vector_offset_default
 *(.vector_181)
                0x000000009d0002a8                . = ALIGN (0x4)
                0x00000000000002a8                __vector_offset_182 = DEFINED (__vector_dispatch_182)?(. - _ebase_address):__vector_offset_default
 *(.vector_182)
                0x000000009d0002a8                . = ALIGN (0x4)
                0x00000000000002a8                __vector_offset_183 = DEFINED (__vector_dispatch_183)?(. - _ebase_address):__vector_offset_default
 *(.vector_183)
                0x000000009d0002a8                . = ALIGN (0x4)
                0x00000000000002a8                __vector_offset_184 = DEFINED (__vector_dispatch_184)?(. - _ebase_address):__vector_offset_default
 *(.vector_184)
                0x000000009d0002a8                . = ALIGN (0x4)
                0x00000000000002a8                __vector_offset_185 = DEFINED (__vector_dispatch_185)?(. - _ebase_address):__vector_offset_default
 *(.vector_185)
                0x000000009d0002a8                . = ALIGN (0x4)
                0x00000000000002a8                __vector_offset_186 = DEFINED (__vector_dispatch_186)?(. - _ebase_address):__vector_offset_default
 *(.vector_186)
                0x000000009d0002a8                . = ALIGN (0x4)
                0x00000000000002a8                __vector_offset_187 = DEFINED (__vector_dispatch_187)?(. - _ebase_address):__vector_offset_default
 *(.vector_187)
                0x000000009d0002a8                . = ALIGN (0x4)
                0x00000000000002a8                __vector_offset_188 = DEFINED (__vector_dispatch_188)?(. - _ebase_address):__vector_offset_default
 *(.vector_188)
                0x000000009d0002a8                . = ALIGN (0x4)
                0x00000000000002a8                __vector_offset_189 = DEFINED (__vector_dispatch_189)?(. - _ebase_address):__vector_offset_default
 *(.vector_189)
                0x000000009d0002a8                . = ALIGN (0x4)
                0x00000000000002a8                __vector_offset_190 = DEFINED (__vector_dispatch_190)?(. - _ebase_address):__vector_offset_default
 *(.vector_190)
                0x000000009d0002a8                . = ALIGN (0x4)
                0x00000000000002a8                __vector_offset_191 = DEFINED (__vector_dispatch_191)?(. - _ebase_address):__vector_offset_default
 *(.vector_191)
                0x000000009d0002a8                . = ALIGN (0x4)
                0x00000000000002a8                __vector_offset_192 = DEFINED (__vector_dispatch_192)?(. - _ebase_address):__vector_offset_default
 *(.vector_192)
                0x000000009d0002a8                . = ALIGN (0x4)
                0x00000000000002a8                __vector_offset_193 = DEFINED (__vector_dispatch_193)?(. - _ebase_address):__vector_offset_default
 *(.vector_193)
                0x000000009d0002a8                . = ALIGN (0x4)
                0x00000000000002a8                __vector_offset_194 = DEFINED (__vector_dispatch_194)?(. - _ebase_address):__vector_offset_default
 *(.vector_194)
                0x000000009d0002a8                . = ALIGN (0x4)
                0x00000000000002a8                __vector_offset_195 = DEFINED (__vector_dispatch_195)?(. - _ebase_address):__vector_offset_default
 *(.vector_195)
                0x000000009d0002a8                . = ALIGN (0x4)
                0x00000000000002a8                __vector_offset_196 = DEFINED (__vector_dispatch_196)?(. - _ebase_address):__vector_offset_default
 *(.vector_196)
                0x000000009d0002a8                . = ALIGN (0x4)
                0x00000000000002a8                __vector_offset_197 = DEFINED (__vector_dispatch_197)?(. - _ebase_address):__vector_offset_default
 *(.vector_197)
                0x000000009d0002a8                . = ALIGN (0x4)
                0x00000000000002a8                __vector_offset_198 = DEFINED (__vector_dispatch_198)?(. - _ebase_address):__vector_offset_default
 *(.vector_198)
                0x000000009d0002a8                . = ALIGN (0x4)
                0x00000000000002a8                __vector_offset_199 = DEFINED (__vector_dispatch_199)?(. - _ebase_address):__vector_offset_default
 *(.vector_199)
                0x000000009d0002a8                . = ALIGN (0x4)
                0x00000000000002a8                __vector_offset_200 = DEFINED (__vector_dispatch_200)?(. - _ebase_address):__vector_offset_default
 *(.vector_200)
                0x000000009d0002a8                . = ALIGN (0x4)
                0x00000000000002a8                __vector_offset_201 = DEFINED (__vector_dispatch_201)?(. - _ebase_address):__vector_offset_default
 *(.vector_201)
                0x000000009d0002a8                . = ALIGN (0x4)
                0x00000000000002a8                __vector_offset_202 = DEFINED (__vector_dispatch_202)?(. - _ebase_address):__vector_offset_default
 *(.vector_202)
                0x000000009d0002a8                . = ALIGN (0x4)
                0x00000000000002a8                __vector_offset_203 = DEFINED (__vector_dispatch_203)?(. - _ebase_address):__vector_offset_default
 *(.vector_203)
                0x000000009d0002a8                . = ALIGN (0x4)
                0x00000000000002a8                __vector_offset_204 = DEFINED (__vector_dispatch_204)?(. - _ebase_address):__vector_offset_default
 *(.vector_204)
                0x000000009d0002a8                . = ALIGN (0x4)
                0x00000000000002a8                __vector_offset_205 = DEFINED (__vector_dispatch_205)?(. - _ebase_address):__vector_offset_default
 *(.vector_205)
                0x000000009d0002a8                . = ALIGN (0x4)
                0x00000000000002a8                __vector_offset_206 = DEFINED (__vector_dispatch_206)?(. - _ebase_address):__vector_offset_default
 *(.vector_206)
                0x000000009d0002a8                . = ALIGN (0x4)
                0x00000000000002a8                __vector_offset_207 = DEFINED (__vector_dispatch_207)?(. - _ebase_address):__vector_offset_default
 *(.vector_207)
                0x000000009d0002a8                . = ALIGN (0x4)
                0x00000000000002a8                __vector_offset_208 = DEFINED (__vector_dispatch_208)?(. - _ebase_address):__vector_offset_default
 *(.vector_208)
                0x000000009d0002a8                . = ALIGN (0x4)
                0x00000000000002a8                __vector_offset_209 = DEFINED (__vector_dispatch_209)?(. - _ebase_address):__vector_offset_default
 *(.vector_209)
                0x000000009d0002a8                . = ALIGN (0x4)
                0x00000000000002a8                __vector_offset_210 = DEFINED (__vector_dispatch_210)?(. - _ebase_address):__vector_offset_default
 *(.vector_210)
                0x000000009d0002a8                . = ALIGN (0x4)
                0x00000000000002a8                __vector_offset_211 = DEFINED (__vector_dispatch_211)?(. - _ebase_address):__vector_offset_default
 *(.vector_211)
                0x000000009d0002a8                . = ALIGN (0x4)
                0x00000000000002a8                __vector_offset_212 = DEFINED (__vector_dispatch_212)?(. - _ebase_address):__vector_offset_default
 *(.vector_212)
                0x000000009d0002a8                . = ALIGN (0x4)
                0x00000000000002a8                __vector_offset_213 = DEFINED (__vector_dispatch_213)?(. - _ebase_address):__vector_offset_default
 *(.vector_213)
                0x000000009d0002a8                . = ALIGN (0x4)
                0x00000000000002a8                __vector_offset_214 = DEFINED (__vector_dispatch_214)?(. - _ebase_address):__vector_offset_default
 *(.vector_214)
                0x000000009d0002a8                . = ALIGN (0x4)
                0x00000000000002a8                __vector_offset_215 = DEFINED (__vector_dispatch_215)?(. - _ebase_address):__vector_offset_default
 *(.vector_215)
                0x000000009d0002a8                . = ALIGN (0x4)
                0x00000000000002a8                __vector_offset_216 = DEFINED (__vector_dispatch_216)?(. - _ebase_address):__vector_offset_default
 *(.vector_216)
                0x000000009d0002a8                . = ALIGN (0x4)
                0x00000000000002a8                __vector_offset_217 = DEFINED (__vector_dispatch_217)?(. - _ebase_address):__vector_offset_default
 *(.vector_217)
                0x000000009d0002a8                . = ALIGN (0x4)
                0x00000000000002a8                __vector_offset_218 = DEFINED (__vector_dispatch_218)?(. - _ebase_address):__vector_offset_default
 *(.vector_218)
                0x000000009d0002a8                . = ALIGN (0x4)
                0x00000000000002a8                __vector_offset_219 = DEFINED (__vector_dispatch_219)?(. - _ebase_address):__vector_offset_default
 *(.vector_219)
                0x000000009d0002a8                . = ALIGN (0x4)
                0x00000000000002a8                __vector_offset_220 = DEFINED (__vector_dispatch_220)?(. - _ebase_address):__vector_offset_default
 *(.vector_220)
                0x000000009d0002a8                . = ALIGN (0x4)
                0x00000000000002a8                __vector_offset_221 = DEFINED (__vector_dispatch_221)?(. - _ebase_address):__vector_offset_default
 *(.vector_221)
                0x000000009d0002a8                . = ALIGN (0x4)
                0x00000000000002a8                __vector_offset_222 = DEFINED (__vector_dispatch_222)?(. - _ebase_address):__vector_offset_default
 *(.vector_222)
                0x000000009d0002a8                . = ALIGN (0x4)
                0x00000000000002a8                __vector_offset_223 = DEFINED (__vector_dispatch_223)?(. - _ebase_address):__vector_offset_default
 *(.vector_223)
                0x000000009d0002a8                . = ALIGN (0x4)
                0x00000000000002a8                __vector_offset_224 = DEFINED (__vector_dispatch_224)?(. - _ebase_address):__vector_offset_default
 *(.vector_224)
                0x000000009d0002a8                . = ALIGN (0x4)
                0x00000000000002a8                __vector_offset_225 = DEFINED (__vector_dispatch_225)?(. - _ebase_address):__vector_offset_default
 *(.vector_225)
                0x000000009d0002a8                . = ALIGN (0x4)
                0x00000000000002a8                __vector_offset_226 = DEFINED (__vector_dispatch_226)?(. - _ebase_address):__vector_offset_default
 *(.vector_226)
                0x000000009d0002a8                . = ALIGN (0x4)
                0x00000000000002a8                __vector_offset_227 = DEFINED (__vector_dispatch_227)?(. - _ebase_address):__vector_offset_default
 *(.vector_227)
                0x000000009d0002a8                . = ALIGN (0x4)
                0x00000000000002a8                __vector_offset_228 = DEFINED (__vector_dispatch_228)?(. - _ebase_address):__vector_offset_default
 *(.vector_228)
                0x000000009d0002a8                . = ALIGN (0x4)
                0x00000000000002a8                __vector_offset_229 = DEFINED (__vector_dispatch_229)?(. - _ebase_address):__vector_offset_default
 *(.vector_229)
                0x000000009d0002a8                . = ALIGN (0x4)
                0x00000000000002a8                __vector_offset_230 = DEFINED (__vector_dispatch_230)?(. - _ebase_address):__vector_offset_default
 *(.vector_230)
                0x000000009d0002a8                . = ALIGN (0x4)
                0x00000000000002a8                __vector_offset_231 = DEFINED (__vector_dispatch_231)?(. - _ebase_address):__vector_offset_default
 *(.vector_231)
                0x000000009d0002a8                . = ALIGN (0x4)
                0x00000000000002a8                __vector_offset_232 = DEFINED (__vector_dispatch_232)?(. - _ebase_address):__vector_offset_default
 *(.vector_232)
                0x000000009d0002a8                . = ALIGN (0x4)
                0x00000000000002a8                __vector_offset_233 = DEFINED (__vector_dispatch_233)?(. - _ebase_address):__vector_offset_default
 *(.vector_233)
                0x000000009d0002a8                . = ALIGN (0x4)
                0x00000000000002a8                __vector_offset_234 = DEFINED (__vector_dispatch_234)?(. - _ebase_address):__vector_offset_default
 *(.vector_234)
                0x000000009d0002a8                . = ALIGN (0x4)
                0x00000000000002a8                __vector_offset_235 = DEFINED (__vector_dispatch_235)?(. - _ebase_address):__vector_offset_default
 *(.vector_235)
                0x000000009d0002a8                . = ALIGN (0x4)
                0x00000000000002a8                __vector_offset_236 = DEFINED (__vector_dispatch_236)?(. - _ebase_address):__vector_offset_default
 *(.vector_236)
                0x000000009d0002a8                . = ALIGN (0x4)
                0x00000000000002a8                __vector_offset_237 = DEFINED (__vector_dispatch_237)?(. - _ebase_address):__vector_offset_default
 *(.vector_237)
                0x000000009d0002a8                . = ALIGN (0x4)
                0x00000000000002a8                __vector_offset_238 = DEFINED (__vector_dispatch_238)?(. - _ebase_address):__vector_offset_default
 *(.vector_238)
                0x000000009d0002a8                . = ALIGN (0x4)
                0x00000000000002a8                __vector_offset_239 = DEFINED (__vector_dispatch_239)?(. - _ebase_address):__vector_offset_default
 *(.vector_239)
                0x000000009d0002a8                . = ALIGN (0x4)
                0x00000000000002a8                __vector_offset_240 = DEFINED (__vector_dispatch_240)?(. - _ebase_address):__vector_offset_default
 *(.vector_240)
                0x000000009d0002a8                . = ALIGN (0x4)
                0x00000000000002a8                __vector_offset_241 = DEFINED (__vector_dispatch_241)?(. - _ebase_address):__vector_offset_default
 *(.vector_241)
                0x000000009d0002a8                . = ALIGN (0x4)
                0x00000000000002a8                __vector_offset_242 = DEFINED (__vector_dispatch_242)?(. - _ebase_address):__vector_offset_default
 *(.vector_242)
                0x000000009d0002a8                . = ALIGN (0x4)
                0x00000000000002a8                __vector_offset_243 = DEFINED (__vector_dispatch_243)?(. - _ebase_address):__vector_offset_default
 *(.vector_243)
                0x000000009d0002a8                . = ALIGN (0x4)
                0x00000000000002a8                __vector_offset_244 = DEFINED (__vector_dispatch_244)?(. - _ebase_address):__vector_offset_default
 *(.vector_244)
                0x000000009d0002a8                . = ALIGN (0x4)
                0x00000000000002a8                __vector_offset_245 = DEFINED (__vector_dispatch_245)?(. - _ebase_address):__vector_offset_default
 *(.vector_245)
                0x000000009d0002a8                . = ALIGN (0x4)
                0x00000000000002a8                __vector_offset_246 = DEFINED (__vector_dispatch_246)?(. - _ebase_address):__vector_offset_default
 *(.vector_246)
                0x000000009d0002a8                . = ALIGN (0x4)
                0x00000000000002a8                __vector_offset_247 = DEFINED (__vector_dispatch_247)?(. - _ebase_address):__vector_offset_default
 *(.vector_247)
                0x000000009d0002a8                . = ALIGN (0x4)
                0x00000000000002a8                __vector_offset_248 = DEFINED (__vector_dispatch_248)?(. - _ebase_address):__vector_offset_default
 *(.vector_248)
                0x000000009d0002a8                . = ALIGN (0x4)
                0x00000000000002a8                __vector_offset_249 = DEFINED (__vector_dispatch_249)?(. - _ebase_address):__vector_offset_default
 *(.vector_249)
                0x000000009d0002a8                . = ALIGN (0x4)
                0x00000000000002a8                __vector_offset_250 = DEFINED (__vector_dispatch_250)?(. - _ebase_address):__vector_offset_default
 *(.vector_250)
                0x000000009d0002a8                . = ALIGN (0x4)
                0x00000000000002a8                __vector_offset_251 = DEFINED (__vector_dispatch_251)?(. - _ebase_address):__vector_offset_default
 *(.vector_251)
                0x000000009d0002a8                . = ALIGN (0x4)
                0x00000000000002a8                __vector_offset_252 = DEFINED (__vector_dispatch_252)?(. - _ebase_address):__vector_offset_default
 *(.vector_252)
                0x000000009d0002a8                . = ALIGN (0x4)
                0x00000000000002a8                __vector_offset_253 = DEFINED (__vector_dispatch_253)?(. - _ebase_address):__vector_offset_default
 *(.vector_253)
                0x000000009d0002a8                . = ALIGN (0x4)
                0x00000000000002a8                __vector_offset_254 = DEFINED (__vector_dispatch_254)?(. - _ebase_address):__vector_offset_default
 *(.vector_254)
                0x000000009d0002a8                . = ALIGN (0x4)
                0x00000000000002a8                __vector_offset_255 = DEFINED (__vector_dispatch_255)?(. - _ebase_address):__vector_offset_default
 *(.vector_255)
                0x000000009d0002a8                . = ALIGN (0x4)
                0x00000000000002a8                __vector_offset_default = (. - _ebase_address)
 *(.vector_default)
 .vector_default
                0x000000009d0002a8       0x48 c:/program files/microchip/xc32/v4.35/bin/bin/../../lib/gcc/pic32mx/8.3.1/../../../../pic32mx/lib/fpu64\libpic32.a(defaultinterrupt.o)
                0x000000009d0002a8                _DefaultInterrupt

.startup
 *(.startup)

.text           0x000000009d0002f0        0x0
 *(.stub .gnu.linkonce.t.*)
 *(.text.*personality*)
 *(.mips16.fn.*)
 *(.mips16.call.*)
 *(.gnu.warning)
                0x000000009d0002f0                . = ALIGN (0x4)

.init           0x000000009d0002f0        0x0
 *crti.o(.init)
 *crtbegin.o(.init)
 *(EXCLUDE_FILE(*crtn.o *crtend?.o *crtend.o) .init)
 *crtend.o(.init)
 *crtn.o(.init)
                0x000000009d0002f0                . = ALIGN (0x4)

.fini           0x000000009d0002f0        0x0
 *(.fini)
                0x000000009d0002f0                . = ALIGN (0x4)

.preinit_array  0x000000009d0002f0        0x0
                [!provide]                        PROVIDE (__preinit_array_start = .)
 *(.preinit_array)
                [!provide]                        PROVIDE (__preinit_array_end = .)
                0x000000009d0002f0                . = ALIGN (0x4)

.init_array     0x000000009d0002f0        0x0
                [!provide]                        PROVIDE (__init_array_start = .)
 *(SORT_BY_NAME(.init_array.*))
 *(.init_array)
                [!provide]                        PROVIDE (__init_array_end = .)
                0x000000009d0002f0                . = ALIGN (0x4)

.fini_array     0x000000009d0002f0        0x0
                [!provide]                        PROVIDE (__fini_array_start = .)
 *(SORT_BY_NAME(.fini_array.*))
 *(.fini_array)
                [!provide]                        PROVIDE (__fini_array_end = .)
                0x000000009d0002f0                . = ALIGN (0x4)

.ctors          0x000000009d0002f0        0x0
 *crtbegin.o(.ctors)
 *crtbegin?.o(.ctors)
 *(EXCLUDE_FILE(*crtend?.o *crtend.o) .ctors)
 *(SORT_BY_NAME(.ctors.*))
 *(.ctors)
                0x000000009d0002f0                . = ALIGN (0x4)

.dtors          0x000000009d0002f0        0x0
 *crtbegin.o(.dtors)
 *crtbegin?.o(.dtors)
 *(EXCLUDE_FILE(*crtend?.o *crtend.o) .dtors)
 *(SORT_BY_NAME(.dtors.*))
 *(.dtors)
                0x000000009d0002f0                . = ALIGN (0x4)

.rodata         0x000000009d0002f0        0x0
 *(.gnu.linkonce.r.*)
 *(.rodata1)
                0x000000009d0002f0                . = ALIGN (0x4)

.sdata2         0x000000009d0002f0        0x0
 *(.sdata2 .sdata2.* .gnu.linkonce.s2.*)
                0x000000009d0002f0                . = ALIGN (0x4)

.sbss2          0x000000009d0002f0        0x0
 *(.sbss2 .sbss2.* .gnu.linkonce.sb2.*)
                0x000000009d0002f0                . = ALIGN (0x4)

.eh_frame_hdr
 *(.eh_frame_hdr)
                0x000000009d0002f0                . = ALIGN (0x4)

.eh_frame
 *(.eh_frame)
                0x000000009d0002f0                . = ALIGN (0x4)

.gcc_except_table
 *(.gcc_except_table .gcc_except_table.*)
                0x000000009d0002f0                . = ALIGN (0x4)

.dbg_data       0x0000000080000000        0x0
                0x0000000080000000                . = (. + DEFINED (_DEBUGGER)?0x200:0x0)
                0x0000000080000000                . = (. + DEFINED (_DEBUGGER)?0x80:0x0)
                0x0000000080000000                . = (. + DEFINED (_DEBUGGER)?0x100:0x0)

.jcr            0x0000000080000000        0x0
 *(.jcr)
                0x0000000080000000                . = ALIGN (0x4)

.eh_frame
 *(.eh_frame)
                0x0000000080000000                . = ALIGN (0x4)

.gcc_except_table
 *(.gcc_except_table .gcc_except_table.*)
                0x0000000080000000                . = ALIGN (0x4)

.persist        0x0000000080000000        0x0
                0x0000000080000000                _persist_begin = .
 *(.persist .persist.*)
                0x0000000080000000                . = ALIGN (0x4)
                0x0000000080000000                _persist_end = .

.data           0x0000000080000000        0x0
 *(.gnu.linkonce.d.*)
 *(.data1)
                0x0000000080000000                . = ALIGN (0x4)
                0x0000000080000000                . = .
                0x0000000080007ff0                _gp = (ALIGN (0x10) + 0x7ff0)

.got            0x0000000080000000        0x0
 *(.got.plt)
 *(.got)
                0x0000000080000000                . = ALIGN (0x4)

.sdata          0x0000000080000000       0x38
                0x0000000080000000                _sdata_begin = .
 *(.sdata .sdata.* .gnu.linkonce.s.*)
 .sdata         0x0000000080000000        0x1 build/default/production/source/Capture.o
                0x0000000080000000                prvniPreruseniIC7
 .sdata         0x0000000080000001        0x1 lib\platformDepLib.X.a(messengerDuoUSB.o)
                0x0000000080000001                tmpBool
 *fill*         0x0000000080000002        0x2 
 .sdata         0x0000000080000004       0x2c lib\platformDepLib.X.a(platformControl.o)
                0x0000000080000004                p_ch_aPf
                0x0000000080000008                p_ch_bPf
                0x000000008000000c                p_bt_enPf
                0x0000000080000010                p_s1Pf
                0x0000000080000014                p_s2Pf
                0x0000000080000018                p_s3Pf
                0x000000008000001c                p_s4Pf
                0x0000000080000020                p_s5Pf
                0x0000000080000024                p_s6Pf
                0x0000000080000028                p_s7Pf
                0x000000008000002c                p_s8Pf
 .sdata         0x0000000080000030        0x8 lib\platformDepLib.X.a(mesengerFRAM.o)
                0x0000000080000038                . = ALIGN (0x4)
                0x0000000080000038                _sdata_end = .

.lit8
 *(.lit8)

.lit4
 *(.lit4)
                0x0000000080000038                . = ALIGN (0x4)
                0x0000000080000038                _data_end = .
                0x0000000080000038                _bss_begin = .

.sbss           0x0000000080000038      0x140
                0x0000000080000038                _sbss_begin = .
 *(.dynsbss)
 *(.sbss .sbss.* .gnu.linkonce.sb.*)
 .sbss          0x0000000080000038        0x4 build/default/production/source/PWM.o
                0x0000000080000038                casJednaPrenos
 .sbss          0x000000008000003c       0x1c build/default/production/source/RTM_monitor.o
                0x000000008000003c                Command
 .sbss          0x0000000080000058       0x1c build/default/production/source/Capture.o
                0x0000000080000058                periodaTickPrenos
                0x000000008000005c                smerOtaceniPrenos
                0x0000000080000060                TMR9Preteceni
                0x0000000080000064                stopaB
                0x0000000080000068                CasNew
                0x000000008000006c                CasOld
 .sbss          0x0000000080000074        0xc lib\platformDepLib.X.a(messengerDuoUSB.o)
                0x0000000080000074                rxCountUSB
                0x0000000080000075                rxReadIxUSB
                0x0000000080000076                rxWriteIxUSB
 .sbss          0x0000000080000080       0x78 lib\platformDepLib.X.a(platformControl.o)
                0x0000000080000080                enc_valuePf
                0x0000000080000084                ch_aPf
                0x000000008000008c                ch_bPf
                0x0000000080000094                bt_enPf
                0x000000008000009c                s1Pf
                0x00000000800000a4                s2Pf
                0x00000000800000ac                s3Pf
                0x00000000800000b4                s4Pf
                0x00000000800000bc                s5Pf
                0x00000000800000c4                s6Pf
                0x00000000800000cc                s7Pf
                0x00000000800000d4                s8Pf
                0x00000000800000dc                platformMode
                0x00000000800000e0                buttonSxArr
                0x00000000800000e8                ledVxArr
                0x00000000800000f0                coderABchnlArr
                0x00000000800000f4                coderLedsArr
 .sbss          0x00000000800000f8        0x9 lib\platformDepLib.X.a(platformInitAdc.o)
                0x00000000800000f8                curRq
                0x00000000800000fc                curAct
                0x0000000080000100                cur_uFilNew
 .sbss          0x0000000080000101        0x1 lib\platformDepLib.X.a(platformInitTimer1.o)
                0x0000000080000101                ledPulseActive
 .sbss          0x0000000080000102        0x1 lib\platformDepLib.X.a(platformInitTimer8.o)
                0x0000000080000102                tick1ms
 *fill*         0x0000000080000103        0x1 
 .sbss          0x0000000080000104       0x20 lib\platformDepLib.X.a(mesengerDuoUART.o)
                0x0000000080000104                rxCountUART
                0x0000000080000105                rxReadIxUART
                0x0000000080000106                rxWriteIxUART
                0x0000000080000108                txMsgBackgroundCtr
                0x000000008000010c                txMsgInterruptCtr
 *(.scommon)
 .scommon       0x0000000080000124       0x2a build/default/production/source/applicationControl.o
                0x0000000080000124                vystupDekoderu
                0x0000000080000128                dekoderStopaA
                0x000000008000012c                pametS4
                0x0000000080000130                pametS6
                0x0000000080000134                tlacitkoS8
                0x0000000080000138                tlacitkoS6
                0x000000008000013c                tlacitkoS4
                0x000000008000013e                prepinac_RTM
                0x0000000080000140                dekoderStopaB
                0x0000000080000144                pametS5
                0x0000000080000148                tlacitkoS7
                0x000000008000014c                tlacitkoS5
 .scommon       0x000000008000014e        0x3 lib\platformDepLib.X.a(messengerDuoUSB.o)
                0x000000008000014e                txBufferIndexUSB
                0x000000008000014f                txBufferCountUSB
                0x0000000080000150                txBufferEmptyUSB
 *fill*         0x0000000080000151        0x3 
 .scommon       0x0000000080000154        0xa lib\platformDepLib.X.a(platformControl.o)
                0x0000000080000154                LEDPbitsPf
                0x0000000080000158                LEDFbitsPf
                0x000000008000015c                dataSPI
 .scommon       0x000000008000015e       0x16 lib\platformDepLib.X.a(platformInitAdc.o)
                0x000000008000015e                cur_vFil
                0x0000000080000160                voltPotFil
                0x0000000080000162                cur_w
                0x0000000080000164                cur_u
                0x0000000080000166                dataRef
                0x0000000080000168                cur_uFil
                0x000000008000016a                cur_wFil
                0x000000008000016c                adcFilValue
                0x000000008000016e                voltPot
                0x0000000080000170                cur_v
                0x0000000080000172                dataTemp
 .scommon       0x0000000080000174        0x3 lib\platformDepLib.X.a(mesengerDuoUART.o)
                0x0000000080000174                txBufferEmptyUART
                0x0000000080000175                txBufferIndexUART
                0x0000000080000176                txBufferCountUART
                0x0000000080000177                _sbss_end = .
                0x0000000080000178                . = ALIGN (0x4)
 *fill*         0x0000000080000177        0x1 

.bss            0x0000000080000178       0xe0
 *(.dynbss)
 *(COMMON)
 COMMON         0x0000000080000178       0x18 build/default/production/source/applicationControl.o
                0x0000000080000178                zat
                0x0000000080000184                captureRTM
 COMMON         0x0000000080000190       0x25 build/default/production/source/RTM_monitor.o
                0x0000000080000190                prijmi
                0x00000000800001a4                odesli
 *fill*         0x00000000800001b5        0x3 
 COMMON         0x00000000800001b8       0x4f lib\platformDepLib.X.a(messengerDuoUSB.o)
                0x00000000800001b8                rxBufferUSB
                0x00000000800001e0                txBufferUSB
 *fill*         0x0000000080000207        0x1 
 COMMON         0x0000000080000208       0x50 lib\platformDepLib.X.a(mesengerDuoUART.o)
                0x0000000080000208                txBufferUART
                0x0000000080000230                rxBufferUART
                0x0000000080000258                . = ALIGN ((. != 0x0)?0x4:0x1)
                0x0000000080000258                . = ALIGN (0x4)
                0x0000000080000258                _end = .
                0x0000000080000258                _bss_end = .
                0x0000000000040000                _bmxdudba_address = LENGTH (kseg0_data_mem)
                0x0000000000040000                _bmxdupba_address = LENGTH (kseg0_data_mem)

/DISCARD/
 *(.pdr)
 *(.rel.dyn)
 *(.note.GNU-stack)
 *(.note.GNU-stack)
 *(.gnu_debuglink)
 *(.gnu.lto_*)
 *(.discard)

.gptab.sdata
 *(.gptab.data)
 *(.gptab.sdata)

.gptab.sbss
 *(.gptab.bss)
 *(.gptab.sbss)

.mdebug.abi32   0x0000000000000000        0x0
 *(.mdebug.abi32)
 .mdebug.abi32  0x0000000000000000        0x0 build/default/production/source/applicationControl.o
 .mdebug.abi32  0x0000000000000000        0x0 build/default/production/source/platformMainMK.o
 .mdebug.abi32  0x0000000000000000        0x0 build/default/production/source/filtrace.o
 .mdebug.abi32  0x0000000000000000        0x0 build/default/production/source/dekoder.o
 .mdebug.abi32  0x0000000000000000        0x0 build/default/production/source/pamet.o
 .mdebug.abi32  0x0000000000000000        0x0 build/default/production/source/PWM.o
 .mdebug.abi32  0x0000000000000000        0x0 build/default/production/source/RTM_monitor.o
 .mdebug.abi32  0x0000000000000000        0x0 build/default/production/source/Hrad_pole.o
 .mdebug.abi32  0x0000000000000000        0x0 build/default/production/source/Capture.o
 .mdebug.abi32  0x0000000000000000        0x0 lib\platformDepLib.X.a(VarConversion.o)
 .mdebug.abi32  0x0000000000000000        0x0 lib\platformDepLib.X.a(messengerDuoUSB.o)
 .mdebug.abi32  0x0000000000000000        0x0 lib\platformDepLib.X.a(platformControl.o)
 .mdebug.abi32  0x0000000000000000        0x0 lib\platformDepLib.X.a(platformInitAdc.o)
 .mdebug.abi32  0x0000000000000000        0x0 lib\platformDepLib.X.a(platformInitTimer1.o)
 .mdebug.abi32  0x0000000000000000        0x0 lib\platformDepLib.X.a(platformInitTimer8.o)
 .mdebug.abi32  0x0000000000000000        0x0 lib\platformDepLib.X.a(platformInputCapture.o)
 .mdebug.abi32  0x0000000000000000        0x0 lib\platformDepLib.X.a(platformOutputCompare.o)
 .mdebug.abi32  0x0000000000000000        0x0 lib\platformDepLib.X.a(mesengerDuoUART.o)
 .mdebug.abi32  0x0000000000000000        0x0 lib\platformDepLib.X.a(mesengerFRAM.o)
 .mdebug.abi32  0x0000000000000000        0x0 c:/program files/microchip/xc32/v4.35/bin/bin/../../lib/gcc/pic32mx/8.3.1/../../../../pic32mx/lib/fpu64\libpic32.a(default-bootstrap-exception-handler.o)
 .mdebug.abi32  0x0000000000000000        0x0 c:/program files/microchip/xc32/v4.35/bin/bin/../../lib/gcc/pic32mx/8.3.1/../../../../pic32mx/lib/fpu64\libpic32.a(default-on-reset.o)
 .mdebug.abi32  0x0000000000000000        0x0 c:/program files/microchip/xc32/v4.35/bin/bin/../../lib/gcc/pic32mx/8.3.1/../../../../pic32mx/lib/fpu64\libpic32.a(default-on-bootstrap.o)
 .mdebug.abi32  0x0000000000000000        0x0 c:/program files/microchip/xc32/v4.35/bin/bin/../../lib/gcc/pic32mx/8.3.1/../../../../pic32mx/lib/fpu64\libpic32.a(defaultinterrupt.o)
 .mdebug.abi32  0x0000000000000000        0x0 c:/program files/microchip/xc32/v4.35/bin/bin/../../lib/gcc/pic32mx/8.3.1/../../../../pic32mx/lib/fpu64\libpic32.a(default-general-exception-handler.o)
 .mdebug.abi32  0x0000000000000000        0x0 c:/program files/microchip/xc32/v4.35/bin/bin/../../lib/gcc/pic32mx/8.3.1/../../../../pic32mx/lib/fpu64\libc-musl.a(__sio_sprintf_dn.o)
 .mdebug.abi32  0x0000000000000000        0x0 c:/program files/microchip/xc32/v4.35/bin/bin/../../lib/gcc/pic32mx/8.3.1/../../../../pic32mx/lib/fpu64\libc-musl.a(__fmt_d.o)
 .mdebug.abi32  0x0000000000000000        0x0 c:/program files/microchip/xc32/v4.35/bin/bin/../../lib/gcc/pic32mx/8.3.1/../../../../pic32mx/lib/fpu64\libc-musl.a(__pop_int.o)
 .mdebug.abi32  0x0000000000000000        0x0 c:/program files/microchip/xc32/v4.35/bin/bin/../../lib/gcc/pic32mx/8.3.1/../../../../pic32mx/lib/fpu64\libc-musl.a(__pop_ptr.o)
 .mdebug.abi32  0x0000000000000000        0x0 c:/program files/microchip/xc32/v4.35/bin/bin/../../lib/gcc/pic32mx/8.3.1/../../../../pic32mx/lib/fpu64\libc-musl.a(__printf_core.o)
 .mdebug.abi32  0x0000000000000000        0x0 c:/program files/microchip/xc32/v4.35/bin/bin/../../lib/gcc/pic32mx/8.3.1/../../../../pic32mx/lib/fpu64\libc-musl.a(atoi.o)
 .mdebug.abi32  0x0000000000000000        0x0 c:/program files/microchip/xc32/v4.35/bin/bin/../../lib/gcc/pic32mx/8.3.1/../../../../pic32mx/lib/fpu64\libc-musl.a(memcpy.o)
 .mdebug.abi32  0x0000000000000000        0x0 c:/program files/microchip/xc32/v4.35/bin/bin/../../lib/gcc/pic32mx/8.3.1/../../../../pic32mx/lib/fpu64\libc-musl.a(memset.o)
 .mdebug.abi32  0x0000000000000000        0x0 c:/program files/microchip/xc32/v4.35/bin/bin/../../lib/gcc/pic32mx/8.3.1/../../../../pic32mx/lib/fpu64\libc-musl.a(strcat.o)
 .mdebug.abi32  0x0000000000000000        0x0 c:/program files/microchip/xc32/v4.35/bin/bin/../../lib/gcc/pic32mx/8.3.1/../../../../pic32mx/lib/fpu64\libc-musl.a(tolower.o)
 .mdebug.abi32  0x0000000000000000        0x0 c:/program files/microchip/xc32/v4.35/bin/bin/../../lib/gcc/pic32mx/8.3.1/../../../../pic32mx/lib/fpu64\libc-musl.a(__int_vsprintf.o)
 .mdebug.abi32  0x0000000000000000        0x0 c:/program files/microchip/xc32/v4.35/bin/bin/../../lib/gcc/pic32mx/8.3.1/../../../../pic32mx/lib/fpu64\libc-musl.a(__cvt_u.o)
 .mdebug.abi32  0x0000000000000000        0x0 c:/program files/microchip/xc32/v4.35/bin/bin/../../lib/gcc/pic32mx/8.3.1/../../../../pic32mx/lib/fpu64\libc-musl.a(__pop_float.o)
 .mdebug.abi32  0x0000000000000000        0x0 c:/program files/microchip/xc32/v4.35/bin/bin/../../lib/gcc/pic32mx/8.3.1/../../../../pic32mx/lib/fpu64\libc-musl.a(__int_vsnprintf.o)
 .mdebug.abi32  0x0000000000000000        0x0 c:/program files/microchip/xc32/v4.35/bin/bin/../../lib/gcc/pic32mx/8.3.1/../../../../pic32mx/lib/fpu64\libc-musl.a(__int_vfprintf.o)
 .mdebug.abi32  0x0000000000000000        0x0 c:/program files/microchip/xc32/v4.35/bin/bin/../../lib/gcc/pic32mx/8.3.1/fpu64\libgcc.a(_udivdi3.o)
 .mdebug.abi32  0x0000000000000000        0x0 c:/program files/microchip/xc32/v4.35/bin/bin/../../lib/gcc/pic32mx/8.3.1/fpu64\libgcc.a(_umoddi3.o)
 .mdebug.abi32  0x0000000000000000        0x0 c:/program files/microchip/xc32/v4.35/bin/bin/../../lib/gcc/pic32mx/8.3.1/../../../../pic32mx/lib/fpu64\libpic32.a(errno.o)

.mdebug.abiN32
 *(.mdebug.abiN32)

.mdebug.abi64
 *(.mdebug.abi64)

.mdebug.abiO64
 *(.mdebug.abiO64)

.mdebug.eabi32
 *(.mdebug.eabi32)

.mdebug.eabi64
 *(.mdebug.eabi64)

.gcc_compiled_long32
 *(.gcc_compiled_long32)

.gcc_compiled_long64
 *(.gcc_compiled_long64)

.stab
 *(.stab)

.stabstr
 *(.stabstr)

.stab.excl
 *(.stab.excl)

.stab.exclstr
 *(.stab.exclstr)

.stab.index
 *(.stab.index)

.stab.indexstr
 *(.stab.indexstr)

.comment        0x0000000000000000       0xb0
 *(.comment)
 .comment       0x0000000000000000       0x2b build/default/production/source/applicationControl.o
                                         0x2c (size before relaxing)
 .comment       0x000000000000002b       0x2c build/default/production/source/platformMainMK.o
 .comment       0x000000000000002b       0x2c build/default/production/source/filtrace.o
 .comment       0x000000000000002b       0x2c build/default/production/source/dekoder.o
 .comment       0x000000000000002b       0x2c build/default/production/source/pamet.o
 .comment       0x000000000000002b       0x2c build/default/production/source/PWM.o
 .comment       0x000000000000002b       0x2c build/default/production/source/RTM_monitor.o
 .comment       0x000000000000002b       0x2c build/default/production/source/Hrad_pole.o
 .comment       0x000000000000002b       0x2c build/default/production/source/Capture.o
 .comment       0x000000000000002b       0x53 lib\platformDepLib.X.a(VarConversion.o)
                                         0x54 (size before relaxing)
 .comment       0x000000000000007e       0x54 lib\platformDepLib.X.a(messengerDuoUSB.o)
 .comment       0x000000000000007e       0x54 lib\platformDepLib.X.a(platformControl.o)
 .comment       0x000000000000007e       0x54 lib\platformDepLib.X.a(platformInitAdc.o)
 .comment       0x000000000000007e       0x54 lib\platformDepLib.X.a(platformInitTimer1.o)
 .comment       0x000000000000007e       0x54 lib\platformDepLib.X.a(platformInitTimer8.o)
 .comment       0x000000000000007e       0x54 lib\platformDepLib.X.a(platformInputCapture.o)
 .comment       0x000000000000007e       0x54 lib\platformDepLib.X.a(platformOutputCompare.o)
 .comment       0x000000000000007e       0x54 lib\platformDepLib.X.a(mesengerDuoUART.o)
 .comment       0x000000000000007e       0x54 lib\platformDepLib.X.a(mesengerFRAM.o)
 .comment       0x000000000000007e       0x19 c:/program files/microchip/xc32/v4.35/bin/bin/../../lib/gcc/pic32mx/8.3.1/../../../../pic32mx/lib/fpu64\libpic32.a(strcpy.o)
                                         0x1a (size before relaxing)
 .comment       0x0000000000000097       0x19 c:/program files/microchip/xc32/v4.35/bin/bin/../../lib/gcc/pic32mx/8.3.1/../../../../pic32mx/lib/fpu64\libpic32.a(strlen.o)
                                         0x1a (size before relaxing)
 .comment       0x00000000000000b0       0x2c c:/program files/microchip/xc32/v4.35/bin/bin/../../lib/gcc/pic32mx/8.3.1/../../../../pic32mx/lib/fpu64\libpic32.a(default-bootstrap-exception-handler.o)
 .comment       0x00000000000000b0       0x2c c:/program files/microchip/xc32/v4.35/bin/bin/../../lib/gcc/pic32mx/8.3.1/../../../../pic32mx/lib/fpu64\libpic32.a(default-on-reset.o)
 .comment       0x00000000000000b0       0x2c c:/program files/microchip/xc32/v4.35/bin/bin/../../lib/gcc/pic32mx/8.3.1/../../../../pic32mx/lib/fpu64\libpic32.a(default-on-bootstrap.o)
 .comment       0x00000000000000b0       0x2c c:/program files/microchip/xc32/v4.35/bin/bin/../../lib/gcc/pic32mx/8.3.1/../../../../pic32mx/lib/fpu64\libpic32.a(defaultinterrupt.o)
 .comment       0x00000000000000b0       0x2c c:/program files/microchip/xc32/v4.35/bin/bin/../../lib/gcc/pic32mx/8.3.1/../../../../pic32mx/lib/fpu64\libpic32.a(default-general-exception-handler.o)
 .comment       0x00000000000000b0       0x2c c:/program files/microchip/xc32/v4.35/bin/bin/../../lib/gcc/pic32mx/8.3.1/../../../../pic32mx/lib/fpu64\libc-musl.a(__sio_sprintf_dn.o)
 .comment       0x00000000000000b0       0x2c c:/program files/microchip/xc32/v4.35/bin/bin/../../lib/gcc/pic32mx/8.3.1/../../../../pic32mx/lib/fpu64\libc-musl.a(__fmt_d.o)
 .comment       0x00000000000000b0       0x2c c:/program files/microchip/xc32/v4.35/bin/bin/../../lib/gcc/pic32mx/8.3.1/../../../../pic32mx/lib/fpu64\libc-musl.a(__pop_int.o)
 .comment       0x00000000000000b0       0x2c c:/program files/microchip/xc32/v4.35/bin/bin/../../lib/gcc/pic32mx/8.3.1/../../../../pic32mx/lib/fpu64\libc-musl.a(__pop_ptr.o)
 .comment       0x00000000000000b0       0x2c c:/program files/microchip/xc32/v4.35/bin/bin/../../lib/gcc/pic32mx/8.3.1/../../../../pic32mx/lib/fpu64\libc-musl.a(__printf_core.o)
 .comment       0x00000000000000b0       0x2c c:/program files/microchip/xc32/v4.35/bin/bin/../../lib/gcc/pic32mx/8.3.1/../../../../pic32mx/lib/fpu64\libc-musl.a(atoi.o)
 .comment       0x00000000000000b0       0x2c c:/program files/microchip/xc32/v4.35/bin/bin/../../lib/gcc/pic32mx/8.3.1/../../../../pic32mx/lib/fpu64\libc-musl.a(memcpy.o)
 .comment       0x00000000000000b0       0x2c c:/program files/microchip/xc32/v4.35/bin/bin/../../lib/gcc/pic32mx/8.3.1/../../../../pic32mx/lib/fpu64\libc-musl.a(memset.o)
 .comment       0x00000000000000b0       0x2c c:/program files/microchip/xc32/v4.35/bin/bin/../../lib/gcc/pic32mx/8.3.1/../../../../pic32mx/lib/fpu64\libc-musl.a(strcat.o)
 .comment       0x00000000000000b0       0x2c c:/program files/microchip/xc32/v4.35/bin/bin/../../lib/gcc/pic32mx/8.3.1/../../../../pic32mx/lib/fpu64\libc-musl.a(tolower.o)
 .comment       0x00000000000000b0       0x2c c:/program files/microchip/xc32/v4.35/bin/bin/../../lib/gcc/pic32mx/8.3.1/../../../../pic32mx/lib/fpu64\libc-musl.a(__int_vsprintf.o)
 .comment       0x00000000000000b0       0x2c c:/program files/microchip/xc32/v4.35/bin/bin/../../lib/gcc/pic32mx/8.3.1/../../../../pic32mx/lib/fpu64\libc-musl.a(__cvt_u.o)
 .comment       0x00000000000000b0       0x2c c:/program files/microchip/xc32/v4.35/bin/bin/../../lib/gcc/pic32mx/8.3.1/../../../../pic32mx/lib/fpu64\libc-musl.a(__pop_float.o)
 .comment       0x00000000000000b0       0x2c c:/program files/microchip/xc32/v4.35/bin/bin/../../lib/gcc/pic32mx/8.3.1/../../../../pic32mx/lib/fpu64\libc-musl.a(__int_vsnprintf.o)
 .comment       0x00000000000000b0       0x2c c:/program files/microchip/xc32/v4.35/bin/bin/../../lib/gcc/pic32mx/8.3.1/../../../../pic32mx/lib/fpu64\libc-musl.a(__int_vfprintf.o)
 .comment       0x00000000000000b0       0x2c c:/program files/microchip/xc32/v4.35/bin/bin/../../lib/gcc/pic32mx/8.3.1/fpu64\libgcc.a(_udivdi3.o)
 .comment       0x00000000000000b0       0x2c c:/program files/microchip/xc32/v4.35/bin/bin/../../lib/gcc/pic32mx/8.3.1/fpu64\libgcc.a(_umoddi3.o)
 .comment       0x00000000000000b0       0x2c c:/program files/microchip/xc32/v4.35/bin/bin/../../lib/gcc/pic32mx/8.3.1/../../../../pic32mx/lib/fpu64\libpic32.a(errno.o)

.debug
 *.elf(.debug)
 *(.debug)

.line
 *.elf(.line)
 *(.line)

.debug_srcinfo
 *.elf(.debug_srcinfo)
 *(.debug_srcinfo)

.debug_sfnames
 *.elf(.debug_sfnames)
 *(.debug_sfnames)

.debug_aranges  0x0000000000000000      0x560
 *.elf(.debug_aranges)
 *(.debug_aranges)
 .debug_aranges
                0x0000000000000000       0x20 build/default/production/source/applicationControl.o
 .debug_aranges
                0x0000000000000020       0x20 build/default/production/source/platformMainMK.o
 .debug_aranges
                0x0000000000000040       0x20 build/default/production/source/filtrace.o
 .debug_aranges
                0x0000000000000060       0x20 build/default/production/source/dekoder.o
 .debug_aranges
                0x0000000000000080       0x20 build/default/production/source/pamet.o
 .debug_aranges
                0x00000000000000a0       0x20 build/default/production/source/PWM.o
 .debug_aranges
                0x00000000000000c0       0x20 build/default/production/source/RTM_monitor.o
 .debug_aranges
                0x00000000000000e0       0x20 build/default/production/source/Hrad_pole.o
 .debug_aranges
                0x0000000000000100       0x20 build/default/production/source/Capture.o
 .debug_aranges
                0x0000000000000120       0x20 lib\platformDepLib.X.a(VarConversion.o)
 .debug_aranges
                0x0000000000000140       0x20 lib\platformDepLib.X.a(messengerDuoUSB.o)
 .debug_aranges
                0x0000000000000160       0x20 lib\platformDepLib.X.a(platformControl.o)
 .debug_aranges
                0x0000000000000180       0x20 lib\platformDepLib.X.a(platformInitAdc.o)
 .debug_aranges
                0x00000000000001a0       0x20 lib\platformDepLib.X.a(platformInitTimer1.o)
 .debug_aranges
                0x00000000000001c0       0x20 lib\platformDepLib.X.a(platformInitTimer8.o)
 .debug_aranges
                0x00000000000001e0       0x20 lib\platformDepLib.X.a(platformInputCapture.o)
 .debug_aranges
                0x0000000000000200       0x20 lib\platformDepLib.X.a(platformOutputCompare.o)
 .debug_aranges
                0x0000000000000220       0x20 lib\platformDepLib.X.a(mesengerDuoUART.o)
 .debug_aranges
                0x0000000000000240       0x20 lib\platformDepLib.X.a(mesengerFRAM.o)
 .debug_aranges
                0x0000000000000260       0x20 c:/program files/microchip/xc32/v4.35/bin/bin/../../lib/gcc/pic32mx/8.3.1/../../../../pic32mx/lib/fpu64\libpic32.a(default-bootstrap-exception-handler.o)
 .debug_aranges
                0x0000000000000280       0x20 c:/program files/microchip/xc32/v4.35/bin/bin/../../lib/gcc/pic32mx/8.3.1/../../../../pic32mx/lib/fpu64\libpic32.a(default-on-reset.o)
 .debug_aranges
                0x00000000000002a0       0x20 c:/program files/microchip/xc32/v4.35/bin/bin/../../lib/gcc/pic32mx/8.3.1/../../../../pic32mx/lib/fpu64\libpic32.a(default-on-bootstrap.o)
 .debug_aranges
                0x00000000000002c0       0x20 c:/program files/microchip/xc32/v4.35/bin/bin/../../lib/gcc/pic32mx/8.3.1/../../../../pic32mx/lib/fpu64\libpic32.a(defaultinterrupt.o)
 .debug_aranges
                0x00000000000002e0       0x20 c:/program files/microchip/xc32/v4.35/bin/bin/../../lib/gcc/pic32mx/8.3.1/../../../../pic32mx/lib/fpu64\libpic32.a(default-general-exception-handler.o)
 .debug_aranges
                0x0000000000000300       0x28 c:/program files/microchip/xc32/v4.35/bin/bin/../../lib/gcc/pic32mx/8.3.1/../../../../pic32mx/lib/fpu64\libc-musl.a(__sio_sprintf_dn.o)
 .debug_aranges
                0x0000000000000328       0x20 c:/program files/microchip/xc32/v4.35/bin/bin/../../lib/gcc/pic32mx/8.3.1/../../../../pic32mx/lib/fpu64\libc-musl.a(__fmt_d.o)
 .debug_aranges
                0x0000000000000348       0x20 c:/program files/microchip/xc32/v4.35/bin/bin/../../lib/gcc/pic32mx/8.3.1/../../../../pic32mx/lib/fpu64\libc-musl.a(__pop_int.o)
 .debug_aranges
                0x0000000000000368       0x20 c:/program files/microchip/xc32/v4.35/bin/bin/../../lib/gcc/pic32mx/8.3.1/../../../../pic32mx/lib/fpu64\libc-musl.a(__pop_ptr.o)
 .debug_aranges
                0x0000000000000388       0x50 c:/program files/microchip/xc32/v4.35/bin/bin/../../lib/gcc/pic32mx/8.3.1/../../../../pic32mx/lib/fpu64\libc-musl.a(__printf_core.o)
 .debug_aranges
                0x00000000000003d8       0x20 c:/program files/microchip/xc32/v4.35/bin/bin/../../lib/gcc/pic32mx/8.3.1/../../../../pic32mx/lib/fpu64\libc-musl.a(atoi.o)
 .debug_aranges
                0x00000000000003f8       0x20 c:/program files/microchip/xc32/v4.35/bin/bin/../../lib/gcc/pic32mx/8.3.1/../../../../pic32mx/lib/fpu64\libc-musl.a(memcpy.o)
 .debug_aranges
                0x0000000000000418       0x20 c:/program files/microchip/xc32/v4.35/bin/bin/../../lib/gcc/pic32mx/8.3.1/../../../../pic32mx/lib/fpu64\libc-musl.a(memset.o)
 .debug_aranges
                0x0000000000000438       0x20 c:/program files/microchip/xc32/v4.35/bin/bin/../../lib/gcc/pic32mx/8.3.1/../../../../pic32mx/lib/fpu64\libc-musl.a(strcat.o)
 .debug_aranges
                0x0000000000000458       0x28 c:/program files/microchip/xc32/v4.35/bin/bin/../../lib/gcc/pic32mx/8.3.1/../../../../pic32mx/lib/fpu64\libc-musl.a(tolower.o)
 .debug_aranges
                0x0000000000000480       0x20 c:/program files/microchip/xc32/v4.35/bin/bin/../../lib/gcc/pic32mx/8.3.1/../../../../pic32mx/lib/fpu64\libc-musl.a(__int_vsprintf.o)
 .debug_aranges
                0x00000000000004a0       0x20 c:/program files/microchip/xc32/v4.35/bin/bin/../../lib/gcc/pic32mx/8.3.1/../../../../pic32mx/lib/fpu64\libc-musl.a(__cvt_u.o)
 .debug_aranges
                0x00000000000004c0       0x20 c:/program files/microchip/xc32/v4.35/bin/bin/../../lib/gcc/pic32mx/8.3.1/../../../../pic32mx/lib/fpu64\libc-musl.a(__pop_float.o)
 .debug_aranges
                0x00000000000004e0       0x20 c:/program files/microchip/xc32/v4.35/bin/bin/../../lib/gcc/pic32mx/8.3.1/../../../../pic32mx/lib/fpu64\libc-musl.a(__int_vsnprintf.o)
 .debug_aranges
                0x0000000000000500       0x20 c:/program files/microchip/xc32/v4.35/bin/bin/../../lib/gcc/pic32mx/8.3.1/../../../../pic32mx/lib/fpu64\libc-musl.a(__int_vfprintf.o)
 .debug_aranges
                0x0000000000000520       0x20 c:/program files/microchip/xc32/v4.35/bin/bin/../../lib/gcc/pic32mx/8.3.1/fpu64\libgcc.a(_udivdi3.o)
 .debug_aranges
                0x0000000000000540       0x20 c:/program files/microchip/xc32/v4.35/bin/bin/../../lib/gcc/pic32mx/8.3.1/fpu64\libgcc.a(_umoddi3.o)

.debug_pubnames
 *.elf(.debug_pubnames)
 *(.debug_pubnames)

.debug_info     0x0000000000000000   0x3cbc2d
 *.elf(.debug_info .gnu.linkonce.wi.*)
 *(.debug_info .gnu.linkonce.wi.*)
 .debug_info    0x0000000000000000      0x2d7 build/default/production/source/applicationControl.o
 .debug_info    0x00000000000002d7      0x374 build/default/production/source/platformMainMK.o
 .debug_info    0x000000000000064b      0x156 build/default/production/source/filtrace.o
 .debug_info    0x00000000000007a1      0x206 build/default/production/source/dekoder.o
 .debug_info    0x00000000000009a7      0x294 build/default/production/source/pamet.o
 .debug_info    0x0000000000000c3b      0x9c7 build/default/production/source/PWM.o
 .debug_info    0x0000000000001602      0x2e4 build/default/production/source/RTM_monitor.o
 .debug_info    0x00000000000018e6       0xcb build/default/production/source/Hrad_pole.o
 .debug_info    0x00000000000019b1      0xd8a build/default/production/source/Capture.o
 .debug_info    0x000000000000273b    0x608a8 lib\platformDepLib.X.a(VarConversion.o)
 .debug_info    0x0000000000062fe3    0x60aa3 lib\platformDepLib.X.a(messengerDuoUSB.o)
 .debug_info    0x00000000000c3a86    0x61836 lib\platformDepLib.X.a(platformControl.o)
 .debug_info    0x00000000001252bc    0x60a51 lib\platformDepLib.X.a(platformInitAdc.o)
 .debug_info    0x0000000000185d0d    0x6075a lib\platformDepLib.X.a(platformInitTimer1.o)
 .debug_info    0x00000000001e6467    0x6070c lib\platformDepLib.X.a(platformInitTimer8.o)
 .debug_info    0x0000000000246b73    0x606cf lib\platformDepLib.X.a(platformInputCapture.o)
 .debug_info    0x00000000002a7242    0x6077a lib\platformDepLib.X.a(platformOutputCompare.o)
 .debug_info    0x00000000003079bc    0x60d0e lib\platformDepLib.X.a(mesengerDuoUART.o)
 .debug_info    0x00000000003686ca    0x607ff lib\platformDepLib.X.a(mesengerFRAM.o)
 .debug_info    0x00000000003c8ec9       0x41 c:/program files/microchip/xc32/v4.35/bin/bin/../../lib/gcc/pic32mx/8.3.1/../../../../pic32mx/lib/fpu64\libpic32.a(default-bootstrap-exception-handler.o)
 .debug_info    0x00000000003c8f0a       0x3f c:/program files/microchip/xc32/v4.35/bin/bin/../../lib/gcc/pic32mx/8.3.1/../../../../pic32mx/lib/fpu64\libpic32.a(default-on-reset.o)
 .debug_info    0x00000000003c8f49       0x3f c:/program files/microchip/xc32/v4.35/bin/bin/../../lib/gcc/pic32mx/8.3.1/../../../../pic32mx/lib/fpu64\libpic32.a(default-on-bootstrap.o)
 .debug_info    0x00000000003c8f88       0x40 c:/program files/microchip/xc32/v4.35/bin/bin/../../lib/gcc/pic32mx/8.3.1/../../../../pic32mx/lib/fpu64\libpic32.a(defaultinterrupt.o)
 .debug_info    0x00000000003c8fc8       0x41 c:/program files/microchip/xc32/v4.35/bin/bin/../../lib/gcc/pic32mx/8.3.1/../../../../pic32mx/lib/fpu64\libpic32.a(default-general-exception-handler.o)
 .debug_info    0x00000000003c9009      0x18b c:/program files/microchip/xc32/v4.35/bin/bin/../../lib/gcc/pic32mx/8.3.1/../../../../pic32mx/lib/fpu64\libc-musl.a(__sio_sprintf_dn.o)
 .debug_info    0x00000000003c9194      0x327 c:/program files/microchip/xc32/v4.35/bin/bin/../../lib/gcc/pic32mx/8.3.1/../../../../pic32mx/lib/fpu64\libc-musl.a(__fmt_d.o)
 .debug_info    0x00000000003c94bb      0x14e c:/program files/microchip/xc32/v4.35/bin/bin/../../lib/gcc/pic32mx/8.3.1/../../../../pic32mx/lib/fpu64\libc-musl.a(__pop_int.o)
 .debug_info    0x00000000003c9609      0x15e c:/program files/microchip/xc32/v4.35/bin/bin/../../lib/gcc/pic32mx/8.3.1/../../../../pic32mx/lib/fpu64\libc-musl.a(__pop_ptr.o)
 .debug_info    0x00000000003c9767      0xa27 c:/program files/microchip/xc32/v4.35/bin/bin/../../lib/gcc/pic32mx/8.3.1/../../../../pic32mx/lib/fpu64\libc-musl.a(__printf_core.o)
 .debug_info    0x00000000003ca18e       0xee c:/program files/microchip/xc32/v4.35/bin/bin/../../lib/gcc/pic32mx/8.3.1/../../../../pic32mx/lib/fpu64\libc-musl.a(atoi.o)
 .debug_info    0x00000000003ca27c       0xf7 c:/program files/microchip/xc32/v4.35/bin/bin/../../lib/gcc/pic32mx/8.3.1/../../../../pic32mx/lib/fpu64\libc-musl.a(memcpy.o)
 .debug_info    0x00000000003ca373       0xc0 c:/program files/microchip/xc32/v4.35/bin/bin/../../lib/gcc/pic32mx/8.3.1/../../../../pic32mx/lib/fpu64\libc-musl.a(memset.o)
 .debug_info    0x00000000003ca433       0xd7 c:/program files/microchip/xc32/v4.35/bin/bin/../../lib/gcc/pic32mx/8.3.1/../../../../pic32mx/lib/fpu64\libc-musl.a(strcat.o)
 .debug_info    0x00000000003ca50a      0x11b c:/program files/microchip/xc32/v4.35/bin/bin/../../lib/gcc/pic32mx/8.3.1/../../../../pic32mx/lib/fpu64\libc-musl.a(tolower.o)
 .debug_info    0x00000000003ca625      0x127 c:/program files/microchip/xc32/v4.35/bin/bin/../../lib/gcc/pic32mx/8.3.1/../../../../pic32mx/lib/fpu64\libc-musl.a(__int_vsprintf.o)
 .debug_info    0x00000000003ca74c      0x1d0 c:/program files/microchip/xc32/v4.35/bin/bin/../../lib/gcc/pic32mx/8.3.1/../../../../pic32mx/lib/fpu64\libc-musl.a(__cvt_u.o)
 .debug_info    0x00000000003ca91c      0x134 c:/program files/microchip/xc32/v4.35/bin/bin/../../lib/gcc/pic32mx/8.3.1/../../../../pic32mx/lib/fpu64\libc-musl.a(__pop_float.o)
 .debug_info    0x00000000003caa50      0x1f5 c:/program files/microchip/xc32/v4.35/bin/bin/../../lib/gcc/pic32mx/8.3.1/../../../../pic32mx/lib/fpu64\libc-musl.a(__int_vsnprintf.o)
 .debug_info    0x00000000003cac45      0x1e0 c:/program files/microchip/xc32/v4.35/bin/bin/../../lib/gcc/pic32mx/8.3.1/../../../../pic32mx/lib/fpu64\libc-musl.a(__int_vfprintf.o)
 .debug_info    0x00000000003cae25      0x6ca c:/program files/microchip/xc32/v4.35/bin/bin/../../lib/gcc/pic32mx/8.3.1/fpu64\libgcc.a(_udivdi3.o)
 .debug_info    0x00000000003cb4ef      0x73e c:/program files/microchip/xc32/v4.35/bin/bin/../../lib/gcc/pic32mx/8.3.1/fpu64\libgcc.a(_umoddi3.o)

.debug_abbrev   0x0000000000000000     0x32c9
 *.elf(.debug_abbrev)
 *(.debug_abbrev)
 .debug_abbrev  0x0000000000000000       0x99 build/default/production/source/applicationControl.o
 .debug_abbrev  0x0000000000000099       0xda build/default/production/source/platformMainMK.o
 .debug_abbrev  0x0000000000000173       0xe9 build/default/production/source/filtrace.o
 .debug_abbrev  0x000000000000025c      0x110 build/default/production/source/dekoder.o
 .debug_abbrev  0x000000000000036c      0x119 build/default/production/source/pamet.o
 .debug_abbrev  0x0000000000000485      0x15d build/default/production/source/PWM.o
 .debug_abbrev  0x00000000000005e2      0x104 build/default/production/source/RTM_monitor.o
 .debug_abbrev  0x00000000000006e6       0x66 build/default/production/source/Hrad_pole.o
 .debug_abbrev  0x000000000000074c      0x1ac build/default/production/source/Capture.o
 .debug_abbrev  0x00000000000008f8      0x20f lib\platformDepLib.X.a(VarConversion.o)
 .debug_abbrev  0x0000000000000b07      0x2f9 lib\platformDepLib.X.a(messengerDuoUSB.o)
 .debug_abbrev  0x0000000000000e00      0x30d lib\platformDepLib.X.a(platformControl.o)
 .debug_abbrev  0x000000000000110d      0x219 lib\platformDepLib.X.a(platformInitAdc.o)
 .debug_abbrev  0x0000000000001326      0x1ea lib\platformDepLib.X.a(platformInitTimer1.o)
 .debug_abbrev  0x0000000000001510      0x1a3 lib\platformDepLib.X.a(platformInitTimer8.o)
 .debug_abbrev  0x00000000000016b3      0x190 lib\platformDepLib.X.a(platformInputCapture.o)
 .debug_abbrev  0x0000000000001843      0x1bd lib\platformDepLib.X.a(platformOutputCompare.o)
 .debug_abbrev  0x0000000000001a00      0x362 lib\platformDepLib.X.a(mesengerDuoUART.o)
 .debug_abbrev  0x0000000000001d62      0x1fd lib\platformDepLib.X.a(mesengerFRAM.o)
 .debug_abbrev  0x0000000000001f5f       0x31 c:/program files/microchip/xc32/v4.35/bin/bin/../../lib/gcc/pic32mx/8.3.1/../../../../pic32mx/lib/fpu64\libpic32.a(default-bootstrap-exception-handler.o)
 .debug_abbrev  0x0000000000001f90       0x2e c:/program files/microchip/xc32/v4.35/bin/bin/../../lib/gcc/pic32mx/8.3.1/../../../../pic32mx/lib/fpu64\libpic32.a(default-on-reset.o)
 .debug_abbrev  0x0000000000001fbe       0x2e c:/program files/microchip/xc32/v4.35/bin/bin/../../lib/gcc/pic32mx/8.3.1/../../../../pic32mx/lib/fpu64\libpic32.a(default-on-bootstrap.o)
 .debug_abbrev  0x0000000000001fec       0x31 c:/program files/microchip/xc32/v4.35/bin/bin/../../lib/gcc/pic32mx/8.3.1/../../../../pic32mx/lib/fpu64\libpic32.a(defaultinterrupt.o)
 .debug_abbrev  0x000000000000201d       0x31 c:/program files/microchip/xc32/v4.35/bin/bin/../../lib/gcc/pic32mx/8.3.1/../../../../pic32mx/lib/fpu64\libpic32.a(default-general-exception-handler.o)
 .debug_abbrev  0x000000000000204e      0x100 c:/program files/microchip/xc32/v4.35/bin/bin/../../lib/gcc/pic32mx/8.3.1/../../../../pic32mx/lib/fpu64\libc-musl.a(__sio_sprintf_dn.o)
 .debug_abbrev  0x000000000000214e      0x161 c:/program files/microchip/xc32/v4.35/bin/bin/../../lib/gcc/pic32mx/8.3.1/../../../../pic32mx/lib/fpu64\libc-musl.a(__fmt_d.o)
 .debug_abbrev  0x00000000000022af       0xc3 c:/program files/microchip/xc32/v4.35/bin/bin/../../lib/gcc/pic32mx/8.3.1/../../../../pic32mx/lib/fpu64\libc-musl.a(__pop_int.o)
 .debug_abbrev  0x0000000000002372       0xd7 c:/program files/microchip/xc32/v4.35/bin/bin/../../lib/gcc/pic32mx/8.3.1/../../../../pic32mx/lib/fpu64\libc-musl.a(__pop_ptr.o)
 .debug_abbrev  0x0000000000002449      0x318 c:/program files/microchip/xc32/v4.35/bin/bin/../../lib/gcc/pic32mx/8.3.1/../../../../pic32mx/lib/fpu64\libc-musl.a(__printf_core.o)
 .debug_abbrev  0x0000000000002761       0xc4 c:/program files/microchip/xc32/v4.35/bin/bin/../../lib/gcc/pic32mx/8.3.1/../../../../pic32mx/lib/fpu64\libc-musl.a(atoi.o)
 .debug_abbrev  0x0000000000002825       0xaa c:/program files/microchip/xc32/v4.35/bin/bin/../../lib/gcc/pic32mx/8.3.1/../../../../pic32mx/lib/fpu64\libc-musl.a(memcpy.o)
 .debug_abbrev  0x00000000000028cf       0x91 c:/program files/microchip/xc32/v4.35/bin/bin/../../lib/gcc/pic32mx/8.3.1/../../../../pic32mx/lib/fpu64\libc-musl.a(memset.o)
 .debug_abbrev  0x0000000000002960       0xaf c:/program files/microchip/xc32/v4.35/bin/bin/../../lib/gcc/pic32mx/8.3.1/../../../../pic32mx/lib/fpu64\libc-musl.a(strcat.o)
 .debug_abbrev  0x0000000000002a0f       0xf1 c:/program files/microchip/xc32/v4.35/bin/bin/../../lib/gcc/pic32mx/8.3.1/../../../../pic32mx/lib/fpu64\libc-musl.a(tolower.o)
 .debug_abbrev  0x0000000000002b00       0xb1 c:/program files/microchip/xc32/v4.35/bin/bin/../../lib/gcc/pic32mx/8.3.1/../../../../pic32mx/lib/fpu64\libc-musl.a(__int_vsprintf.o)
 .debug_abbrev  0x0000000000002bb1       0xe5 c:/program files/microchip/xc32/v4.35/bin/bin/../../lib/gcc/pic32mx/8.3.1/../../../../pic32mx/lib/fpu64\libc-musl.a(__cvt_u.o)
 .debug_abbrev  0x0000000000002c96       0xc3 c:/program files/microchip/xc32/v4.35/bin/bin/../../lib/gcc/pic32mx/8.3.1/../../../../pic32mx/lib/fpu64\libc-musl.a(__pop_float.o)
 .debug_abbrev  0x0000000000002d59      0x13a c:/program files/microchip/xc32/v4.35/bin/bin/../../lib/gcc/pic32mx/8.3.1/../../../../pic32mx/lib/fpu64\libc-musl.a(__int_vsnprintf.o)
 .debug_abbrev  0x0000000000002e93      0x118 c:/program files/microchip/xc32/v4.35/bin/bin/../../lib/gcc/pic32mx/8.3.1/../../../../pic32mx/lib/fpu64\libc-musl.a(__int_vfprintf.o)
 .debug_abbrev  0x0000000000002fab      0x184 c:/program files/microchip/xc32/v4.35/bin/bin/../../lib/gcc/pic32mx/8.3.1/fpu64\libgcc.a(_udivdi3.o)
 .debug_abbrev  0x000000000000312f      0x19a c:/program files/microchip/xc32/v4.35/bin/bin/../../lib/gcc/pic32mx/8.3.1/fpu64\libgcc.a(_umoddi3.o)

.debug_line     0x0000000000000000     0x618f
 *.elf(.debug_line)
 *(.debug_line)
 .debug_line    0x0000000000000000      0x127 build/default/production/source/applicationControl.o
 .debug_line    0x0000000000000127      0x1a3 build/default/production/source/platformMainMK.o
 .debug_line    0x00000000000002ca      0x14a build/default/production/source/filtrace.o
 .debug_line    0x0000000000000414      0x295 build/default/production/source/dekoder.o
 .debug_line    0x00000000000006a9      0x1a8 build/default/production/source/pamet.o
 .debug_line    0x0000000000000851      0x185 build/default/production/source/PWM.o
 .debug_line    0x00000000000009d6      0x1b3 build/default/production/source/RTM_monitor.o
 .debug_line    0x0000000000000b89       0x7c build/default/production/source/Hrad_pole.o
 .debug_line    0x0000000000000c05      0x2b3 build/default/production/source/Capture.o
 .debug_line    0x0000000000000eb8      0x215 lib\platformDepLib.X.a(VarConversion.o)
 .debug_line    0x00000000000010cd      0x4cb lib\platformDepLib.X.a(messengerDuoUSB.o)
 .debug_line    0x0000000000001598      0x924 lib\platformDepLib.X.a(platformControl.o)
 .debug_line    0x0000000000001ebc      0x514 lib\platformDepLib.X.a(platformInitAdc.o)
 .debug_line    0x00000000000023d0      0x21f lib\platformDepLib.X.a(platformInitTimer1.o)
 .debug_line    0x00000000000025ef      0x201 lib\platformDepLib.X.a(platformInitTimer8.o)
 .debug_line    0x00000000000027f0      0x1dd lib\platformDepLib.X.a(platformInputCapture.o)
 .debug_line    0x00000000000029cd      0x24c lib\platformDepLib.X.a(platformOutputCompare.o)
 .debug_line    0x0000000000002c19      0x7f5 lib\platformDepLib.X.a(mesengerDuoUART.o)
 .debug_line    0x000000000000340e      0x3c9 lib\platformDepLib.X.a(mesengerFRAM.o)
 .debug_line    0x00000000000037d7       0xcc c:/program files/microchip/xc32/v4.35/bin/bin/../../lib/gcc/pic32mx/8.3.1/../../../../pic32mx/lib/fpu64\libpic32.a(default-bootstrap-exception-handler.o)
 .debug_line    0x00000000000038a3       0xa8 c:/program files/microchip/xc32/v4.35/bin/bin/../../lib/gcc/pic32mx/8.3.1/../../../../pic32mx/lib/fpu64\libpic32.a(default-on-reset.o)
 .debug_line    0x000000000000394b       0xac c:/program files/microchip/xc32/v4.35/bin/bin/../../lib/gcc/pic32mx/8.3.1/../../../../pic32mx/lib/fpu64\libpic32.a(default-on-bootstrap.o)
 .debug_line    0x00000000000039f7       0xcb c:/program files/microchip/xc32/v4.35/bin/bin/../../lib/gcc/pic32mx/8.3.1/../../../../pic32mx/lib/fpu64\libpic32.a(defaultinterrupt.o)
 .debug_line    0x0000000000003ac2       0xca c:/program files/microchip/xc32/v4.35/bin/bin/../../lib/gcc/pic32mx/8.3.1/../../../../pic32mx/lib/fpu64\libpic32.a(default-general-exception-handler.o)
 .debug_line    0x0000000000003b8c      0x1ec c:/program files/microchip/xc32/v4.35/bin/bin/../../lib/gcc/pic32mx/8.3.1/../../../../pic32mx/lib/fpu64\libc-musl.a(__sio_sprintf_dn.o)
 .debug_line    0x0000000000003d78      0x256 c:/program files/microchip/xc32/v4.35/bin/bin/../../lib/gcc/pic32mx/8.3.1/../../../../pic32mx/lib/fpu64\libc-musl.a(__fmt_d.o)
 .debug_line    0x0000000000003fce      0x252 c:/program files/microchip/xc32/v4.35/bin/bin/../../lib/gcc/pic32mx/8.3.1/../../../../pic32mx/lib/fpu64\libc-musl.a(__pop_int.o)
 .debug_line    0x0000000000004220      0x20b c:/program files/microchip/xc32/v4.35/bin/bin/../../lib/gcc/pic32mx/8.3.1/../../../../pic32mx/lib/fpu64\libc-musl.a(__pop_ptr.o)
 .debug_line    0x000000000000442b      0x702 c:/program files/microchip/xc32/v4.35/bin/bin/../../lib/gcc/pic32mx/8.3.1/../../../../pic32mx/lib/fpu64\libc-musl.a(__printf_core.o)
 .debug_line    0x0000000000004b2d      0x172 c:/program files/microchip/xc32/v4.35/bin/bin/../../lib/gcc/pic32mx/8.3.1/../../../../pic32mx/lib/fpu64\libc-musl.a(atoi.o)
 .debug_line    0x0000000000004c9f      0x13f c:/program files/microchip/xc32/v4.35/bin/bin/../../lib/gcc/pic32mx/8.3.1/../../../../pic32mx/lib/fpu64\libc-musl.a(memcpy.o)
 .debug_line    0x0000000000004dde      0x133 c:/program files/microchip/xc32/v4.35/bin/bin/../../lib/gcc/pic32mx/8.3.1/../../../../pic32mx/lib/fpu64\libc-musl.a(memset.o)
 .debug_line    0x0000000000004f11      0x122 c:/program files/microchip/xc32/v4.35/bin/bin/../../lib/gcc/pic32mx/8.3.1/../../../../pic32mx/lib/fpu64\libc-musl.a(strcat.o)
 .debug_line    0x0000000000005033      0x1b9 c:/program files/microchip/xc32/v4.35/bin/bin/../../lib/gcc/pic32mx/8.3.1/../../../../pic32mx/lib/fpu64\libc-musl.a(tolower.o)
 .debug_line    0x00000000000051ec      0x1a3 c:/program files/microchip/xc32/v4.35/bin/bin/../../lib/gcc/pic32mx/8.3.1/../../../../pic32mx/lib/fpu64\libc-musl.a(__int_vsprintf.o)
 .debug_line    0x000000000000538f      0x23a c:/program files/microchip/xc32/v4.35/bin/bin/../../lib/gcc/pic32mx/8.3.1/../../../../pic32mx/lib/fpu64\libc-musl.a(__cvt_u.o)
 .debug_line    0x00000000000055c9      0x1b3 c:/program files/microchip/xc32/v4.35/bin/bin/../../lib/gcc/pic32mx/8.3.1/../../../../pic32mx/lib/fpu64\libc-musl.a(__pop_float.o)
 .debug_line    0x000000000000577c      0x265 c:/program files/microchip/xc32/v4.35/bin/bin/../../lib/gcc/pic32mx/8.3.1/../../../../pic32mx/lib/fpu64\libc-musl.a(__int_vsnprintf.o)
 .debug_line    0x00000000000059e1      0x1c1 c:/program files/microchip/xc32/v4.35/bin/bin/../../lib/gcc/pic32mx/8.3.1/../../../../pic32mx/lib/fpu64\libc-musl.a(__int_vfprintf.o)
 .debug_line    0x0000000000005ba2      0x2db c:/program files/microchip/xc32/v4.35/bin/bin/../../lib/gcc/pic32mx/8.3.1/fpu64\libgcc.a(_udivdi3.o)
 .debug_line    0x0000000000005e7d      0x312 c:/program files/microchip/xc32/v4.35/bin/bin/../../lib/gcc/pic32mx/8.3.1/fpu64\libgcc.a(_umoddi3.o)
 .debug_line    0x000000000000618f        0x0 c:/program files/microchip/xc32/v4.35/bin/bin/../../lib/gcc/pic32mx/8.3.1/../../../../pic32mx/lib/fpu64\libpic32.a(errno.o)

.debug_frame    0x0000000000000000     0x21f4
 *.elf(.debug_frame)
 *(.debug_frame)
 .debug_frame   0x0000000000000000       0x60 build/default/production/source/applicationControl.o
 .debug_frame   0x0000000000000060       0x50 build/default/production/source/platformMainMK.o
 .debug_frame   0x00000000000000b0       0x74 build/default/production/source/filtrace.o
 .debug_frame   0x0000000000000124       0xdc build/default/production/source/dekoder.o
 .debug_frame   0x0000000000000200       0xd8 build/default/production/source/pamet.o
 .debug_frame   0x00000000000002d8       0xac build/default/production/source/PWM.o
 .debug_frame   0x0000000000000384       0x54 build/default/production/source/RTM_monitor.o
 .debug_frame   0x00000000000003d8       0x34 build/default/production/source/Hrad_pole.o
 .debug_frame   0x000000000000040c      0x1c4 build/default/production/source/Capture.o
 .debug_frame   0x00000000000005d0       0x90 lib\platformDepLib.X.a(VarConversion.o)
 .debug_frame   0x0000000000000660      0x258 lib\platformDepLib.X.a(messengerDuoUSB.o)
 .debug_frame   0x00000000000008b8      0x978 lib\platformDepLib.X.a(platformControl.o)
 .debug_frame   0x0000000000001230      0x35c lib\platformDepLib.X.a(platformInitAdc.o)
 .debug_frame   0x000000000000158c       0xe8 lib\platformDepLib.X.a(platformInitTimer1.o)
 .debug_frame   0x0000000000001674       0xa8 lib\platformDepLib.X.a(platformInitTimer8.o)
 .debug_frame   0x000000000000171c       0x50 lib\platformDepLib.X.a(platformInputCapture.o)
 .debug_frame   0x000000000000176c      0x134 lib\platformDepLib.X.a(platformOutputCompare.o)
 .debug_frame   0x00000000000018a0      0x46c lib\platformDepLib.X.a(mesengerDuoUART.o)
 .debug_frame   0x0000000000001d0c       0xbc lib\platformDepLib.X.a(mesengerFRAM.o)
 .debug_frame   0x0000000000001dc8       0x2c c:/program files/microchip/xc32/v4.35/bin/bin/../../lib/gcc/pic32mx/8.3.1/../../../../pic32mx/lib/fpu64\libpic32.a(default-bootstrap-exception-handler.o)
 .debug_frame   0x0000000000001df4       0x20 c:/program files/microchip/xc32/v4.35/bin/bin/../../lib/gcc/pic32mx/8.3.1/../../../../pic32mx/lib/fpu64\libpic32.a(default-on-reset.o)
 .debug_frame   0x0000000000001e14       0x20 c:/program files/microchip/xc32/v4.35/bin/bin/../../lib/gcc/pic32mx/8.3.1/../../../../pic32mx/lib/fpu64\libpic32.a(default-on-bootstrap.o)
 .debug_frame   0x0000000000001e34       0x20 c:/program files/microchip/xc32/v4.35/bin/bin/../../lib/gcc/pic32mx/8.3.1/../../../../pic32mx/lib/fpu64\libpic32.a(defaultinterrupt.o)
 .debug_frame   0x0000000000001e54       0x2c c:/program files/microchip/xc32/v4.35/bin/bin/../../lib/gcc/pic32mx/8.3.1/../../../../pic32mx/lib/fpu64\libpic32.a(default-general-exception-handler.o)
 .debug_frame   0x0000000000001e80       0x48 c:/program files/microchip/xc32/v4.35/bin/bin/../../lib/gcc/pic32mx/8.3.1/../../../../pic32mx/lib/fpu64\libc-musl.a(__sio_sprintf_dn.o)
 .debug_frame   0x0000000000001ec8       0x38 c:/program files/microchip/xc32/v4.35/bin/bin/../../lib/gcc/pic32mx/8.3.1/../../../../pic32mx/lib/fpu64\libc-musl.a(__fmt_d.o)
 .debug_frame   0x0000000000001f00       0x20 c:/program files/microchip/xc32/v4.35/bin/bin/../../lib/gcc/pic32mx/8.3.1/../../../../pic32mx/lib/fpu64\libc-musl.a(__pop_int.o)
 .debug_frame   0x0000000000001f20       0x20 c:/program files/microchip/xc32/v4.35/bin/bin/../../lib/gcc/pic32mx/8.3.1/../../../../pic32mx/lib/fpu64\libc-musl.a(__pop_ptr.o)
 .debug_frame   0x0000000000001f40       0xc8 c:/program files/microchip/xc32/v4.35/bin/bin/../../lib/gcc/pic32mx/8.3.1/../../../../pic32mx/lib/fpu64\libc-musl.a(__printf_core.o)
 .debug_frame   0x0000000000002008       0x20 c:/program files/microchip/xc32/v4.35/bin/bin/../../lib/gcc/pic32mx/8.3.1/../../../../pic32mx/lib/fpu64\libc-musl.a(atoi.o)
 .debug_frame   0x0000000000002028       0x20 c:/program files/microchip/xc32/v4.35/bin/bin/../../lib/gcc/pic32mx/8.3.1/../../../../pic32mx/lib/fpu64\libc-musl.a(memcpy.o)
 .debug_frame   0x0000000000002048       0x20 c:/program files/microchip/xc32/v4.35/bin/bin/../../lib/gcc/pic32mx/8.3.1/../../../../pic32mx/lib/fpu64\libc-musl.a(memset.o)
 .debug_frame   0x0000000000002068       0x2c c:/program files/microchip/xc32/v4.35/bin/bin/../../lib/gcc/pic32mx/8.3.1/../../../../pic32mx/lib/fpu64\libc-musl.a(strcat.o)
 .debug_frame   0x0000000000002094       0x3c c:/program files/microchip/xc32/v4.35/bin/bin/../../lib/gcc/pic32mx/8.3.1/../../../../pic32mx/lib/fpu64\libc-musl.a(tolower.o)
 .debug_frame   0x00000000000020d0       0x2c c:/program files/microchip/xc32/v4.35/bin/bin/../../lib/gcc/pic32mx/8.3.1/../../../../pic32mx/lib/fpu64\libc-musl.a(__int_vsprintf.o)
 .debug_frame   0x00000000000020fc       0x40 c:/program files/microchip/xc32/v4.35/bin/bin/../../lib/gcc/pic32mx/8.3.1/../../../../pic32mx/lib/fpu64\libc-musl.a(__cvt_u.o)
 .debug_frame   0x000000000000213c       0x20 c:/program files/microchip/xc32/v4.35/bin/bin/../../lib/gcc/pic32mx/8.3.1/../../../../pic32mx/lib/fpu64\libc-musl.a(__pop_float.o)
 .debug_frame   0x000000000000215c       0x2c c:/program files/microchip/xc32/v4.35/bin/bin/../../lib/gcc/pic32mx/8.3.1/../../../../pic32mx/lib/fpu64\libc-musl.a(__int_vsnprintf.o)
 .debug_frame   0x0000000000002188       0x2c c:/program files/microchip/xc32/v4.35/bin/bin/../../lib/gcc/pic32mx/8.3.1/../../../../pic32mx/lib/fpu64\libc-musl.a(__int_vfprintf.o)
 .debug_frame   0x00000000000021b4       0x20 c:/program files/microchip/xc32/v4.35/bin/bin/../../lib/gcc/pic32mx/8.3.1/fpu64\libgcc.a(_udivdi3.o)
 .debug_frame   0x00000000000021d4       0x20 c:/program files/microchip/xc32/v4.35/bin/bin/../../lib/gcc/pic32mx/8.3.1/fpu64\libgcc.a(_umoddi3.o)

.debug_str      0x0000000000000000   0x155000
 *.elf(.debug_str)
 *(.debug_str)
 .debug_str     0x0000000000000000      0x351 build/default/production/source/applicationControl.o
 .debug_str     0x0000000000000351      0x350 build/default/production/source/platformMainMK.o
 .debug_str     0x00000000000006a1      0x20a build/default/production/source/filtrace.o
 .debug_str     0x00000000000008ab      0x26a build/default/production/source/dekoder.o
 .debug_str     0x0000000000000b15      0x2af build/default/production/source/pamet.o
 .debug_str     0x0000000000000dc4      0x513 build/default/production/source/PWM.o
 .debug_str     0x00000000000012d7      0x300 build/default/production/source/RTM_monitor.o
 .debug_str     0x00000000000015d7      0x211 build/default/production/source/Hrad_pole.o
 .debug_str     0x00000000000017e8      0x684 build/default/production/source/Capture.o
 .debug_str     0x0000000000001e6c    0x21531 lib\platformDepLib.X.a(VarConversion.o)
 .debug_str     0x000000000002339d    0x216ff lib\platformDepLib.X.a(messengerDuoUSB.o)
 .debug_str     0x0000000000044a9c    0x21a96 lib\platformDepLib.X.a(platformControl.o)
 .debug_str     0x0000000000066532    0x216cf lib\platformDepLib.X.a(platformInitAdc.o)
 .debug_str     0x0000000000087c01    0x21520 lib\platformDepLib.X.a(platformInitTimer1.o)
 .debug_str     0x00000000000a9121    0x214d5 lib\platformDepLib.X.a(platformInitTimer8.o)
 .debug_str     0x00000000000ca5f6    0x214d2 lib\platformDepLib.X.a(platformInputCapture.o)
 .debug_str     0x00000000000ebac8    0x21571 lib\platformDepLib.X.a(platformOutputCompare.o)
 .debug_str     0x000000000010d039    0x217e8 lib\platformDepLib.X.a(mesengerDuoUART.o)
 .debug_str     0x000000000012e821    0x21523 lib\platformDepLib.X.a(mesengerFRAM.o)
 .debug_str     0x000000000014fd44      0x37b c:/program files/microchip/xc32/v4.35/bin/bin/../../lib/gcc/pic32mx/8.3.1/../../../../pic32mx/lib/fpu64\libpic32.a(default-bootstrap-exception-handler.o)
 .debug_str     0x00000000001500bf      0x355 c:/program files/microchip/xc32/v4.35/bin/bin/../../lib/gcc/pic32mx/8.3.1/../../../../pic32mx/lib/fpu64\libpic32.a(default-on-reset.o)
 .debug_str     0x0000000000150414      0x35d c:/program files/microchip/xc32/v4.35/bin/bin/../../lib/gcc/pic32mx/8.3.1/../../../../pic32mx/lib/fpu64\libpic32.a(default-on-bootstrap.o)
 .debug_str     0x0000000000150771      0x36f c:/program files/microchip/xc32/v4.35/bin/bin/../../lib/gcc/pic32mx/8.3.1/../../../../pic32mx/lib/fpu64\libpic32.a(defaultinterrupt.o)
 .debug_str     0x0000000000150ae0      0x377 c:/program files/microchip/xc32/v4.35/bin/bin/../../lib/gcc/pic32mx/8.3.1/../../../../pic32mx/lib/fpu64\libpic32.a(default-general-exception-handler.o)
 .debug_str     0x0000000000150e57      0x3dd c:/program files/microchip/xc32/v4.35/bin/bin/../../lib/gcc/pic32mx/8.3.1/../../../../pic32mx/lib/fpu64\libc-musl.a(__sio_sprintf_dn.o)
 .debug_str     0x0000000000151234      0x3e2 c:/program files/microchip/xc32/v4.35/bin/bin/../../lib/gcc/pic32mx/8.3.1/../../../../pic32mx/lib/fpu64\libc-musl.a(__fmt_d.o)
 .debug_str     0x0000000000151616      0x3bb c:/program files/microchip/xc32/v4.35/bin/bin/../../lib/gcc/pic32mx/8.3.1/../../../../pic32mx/lib/fpu64\libc-musl.a(__pop_int.o)
 .debug_str     0x00000000001519d1      0x3bd c:/program files/microchip/xc32/v4.35/bin/bin/../../lib/gcc/pic32mx/8.3.1/../../../../pic32mx/lib/fpu64\libc-musl.a(__pop_ptr.o)
 .debug_str     0x0000000000151d8e      0x4d1 c:/program files/microchip/xc32/v4.35/bin/bin/../../lib/gcc/pic32mx/8.3.1/../../../../pic32mx/lib/fpu64\libc-musl.a(__printf_core.o)
 .debug_str     0x000000000015225f      0x31b c:/program files/microchip/xc32/v4.35/bin/bin/../../lib/gcc/pic32mx/8.3.1/../../../../pic32mx/lib/fpu64\libc-musl.a(atoi.o)
 .debug_str     0x000000000015257a      0x328 c:/program files/microchip/xc32/v4.35/bin/bin/../../lib/gcc/pic32mx/8.3.1/../../../../pic32mx/lib/fpu64\libc-musl.a(memcpy.o)
 .debug_str     0x00000000001528a2      0x314 c:/program files/microchip/xc32/v4.35/bin/bin/../../lib/gcc/pic32mx/8.3.1/../../../../pic32mx/lib/fpu64\libc-musl.a(memset.o)
 .debug_str     0x0000000000152bb6      0x311 c:/program files/microchip/xc32/v4.35/bin/bin/../../lib/gcc/pic32mx/8.3.1/../../../../pic32mx/lib/fpu64\libc-musl.a(strcat.o)
 .debug_str     0x0000000000152ec7      0x348 c:/program files/microchip/xc32/v4.35/bin/bin/../../lib/gcc/pic32mx/8.3.1/../../../../pic32mx/lib/fpu64\libc-musl.a(tolower.o)
 .debug_str     0x000000000015320f      0x396 c:/program files/microchip/xc32/v4.35/bin/bin/../../lib/gcc/pic32mx/8.3.1/../../../../pic32mx/lib/fpu64\libc-musl.a(__int_vsprintf.o)
 .debug_str     0x00000000001535a5      0x39e c:/program files/microchip/xc32/v4.35/bin/bin/../../lib/gcc/pic32mx/8.3.1/../../../../pic32mx/lib/fpu64\libc-musl.a(__cvt_u.o)
 .debug_str     0x0000000000153943      0x3b0 c:/program files/microchip/xc32/v4.35/bin/bin/../../lib/gcc/pic32mx/8.3.1/../../../../pic32mx/lib/fpu64\libc-musl.a(__pop_float.o)
 .debug_str     0x0000000000153cf3      0x3de c:/program files/microchip/xc32/v4.35/bin/bin/../../lib/gcc/pic32mx/8.3.1/../../../../pic32mx/lib/fpu64\libc-musl.a(__int_vsnprintf.o)
 .debug_str     0x00000000001540d1      0x3d9 c:/program files/microchip/xc32/v4.35/bin/bin/../../lib/gcc/pic32mx/8.3.1/../../../../pic32mx/lib/fpu64\libc-musl.a(__int_vfprintf.o)
 .debug_str     0x00000000001544aa      0x40b c:/program files/microchip/xc32/v4.35/bin/bin/../../lib/gcc/pic32mx/8.3.1/fpu64\libgcc.a(_udivdi3.o)
 .debug_str     0x00000000001548b5      0x40b c:/program files/microchip/xc32/v4.35/bin/bin/../../lib/gcc/pic32mx/8.3.1/fpu64\libgcc.a(_umoddi3.o)
 .debug_str     0x0000000000154cc0      0x340 c:/program files/microchip/xc32/v4.35/bin/bin/../../lib/gcc/pic32mx/8.3.1/../../../../pic32mx/lib/fpu64\libpic32.a(errno.o)

.debug_loc      0x0000000000000000     0x2316
 *.elf(.debug_loc)
 *(.debug_loc)
 .debug_loc     0x0000000000000000       0x2c c:/program files/microchip/xc32/v4.35/bin/bin/../../lib/gcc/pic32mx/8.3.1/../../../../pic32mx/lib/fpu64\libpic32.a(default-bootstrap-exception-handler.o)
 .debug_loc     0x000000000000002c       0x2c c:/program files/microchip/xc32/v4.35/bin/bin/../../lib/gcc/pic32mx/8.3.1/../../../../pic32mx/lib/fpu64\libpic32.a(default-general-exception-handler.o)
 .debug_loc     0x0000000000000058       0x5f c:/program files/microchip/xc32/v4.35/bin/bin/../../lib/gcc/pic32mx/8.3.1/../../../../pic32mx/lib/fpu64\libc-musl.a(__sio_sprintf_dn.o)
 .debug_loc     0x00000000000000b7      0x241 c:/program files/microchip/xc32/v4.35/bin/bin/../../lib/gcc/pic32mx/8.3.1/../../../../pic32mx/lib/fpu64\libc-musl.a(__fmt_d.o)
 .debug_loc     0x00000000000002f8       0x40 c:/program files/microchip/xc32/v4.35/bin/bin/../../lib/gcc/pic32mx/8.3.1/../../../../pic32mx/lib/fpu64\libc-musl.a(__pop_ptr.o)
 .debug_loc     0x0000000000000338      0x56c c:/program files/microchip/xc32/v4.35/bin/bin/../../lib/gcc/pic32mx/8.3.1/../../../../pic32mx/lib/fpu64\libc-musl.a(__printf_core.o)
 .debug_loc     0x00000000000008a4       0xbe c:/program files/microchip/xc32/v4.35/bin/bin/../../lib/gcc/pic32mx/8.3.1/../../../../pic32mx/lib/fpu64\libc-musl.a(atoi.o)
 .debug_loc     0x0000000000000962       0xd6 c:/program files/microchip/xc32/v4.35/bin/bin/../../lib/gcc/pic32mx/8.3.1/../../../../pic32mx/lib/fpu64\libc-musl.a(memcpy.o)
 .debug_loc     0x0000000000000a38       0xb6 c:/program files/microchip/xc32/v4.35/bin/bin/../../lib/gcc/pic32mx/8.3.1/../../../../pic32mx/lib/fpu64\libc-musl.a(memset.o)
 .debug_loc     0x0000000000000aee       0x60 c:/program files/microchip/xc32/v4.35/bin/bin/../../lib/gcc/pic32mx/8.3.1/../../../../pic32mx/lib/fpu64\libc-musl.a(strcat.o)
 .debug_loc     0x0000000000000b4e       0x89 c:/program files/microchip/xc32/v4.35/bin/bin/../../lib/gcc/pic32mx/8.3.1/../../../../pic32mx/lib/fpu64\libc-musl.a(__int_vsprintf.o)
 .debug_loc     0x0000000000000bd7      0x1fe c:/program files/microchip/xc32/v4.35/bin/bin/../../lib/gcc/pic32mx/8.3.1/../../../../pic32mx/lib/fpu64\libc-musl.a(__cvt_u.o)
 .debug_loc     0x0000000000000dd5      0x113 c:/program files/microchip/xc32/v4.35/bin/bin/../../lib/gcc/pic32mx/8.3.1/../../../../pic32mx/lib/fpu64\libc-musl.a(__int_vsnprintf.o)
 .debug_loc     0x0000000000000ee8       0x9f c:/program files/microchip/xc32/v4.35/bin/bin/../../lib/gcc/pic32mx/8.3.1/../../../../pic32mx/lib/fpu64\libc-musl.a(__int_vfprintf.o)
 .debug_loc     0x0000000000000f87      0x9f5 c:/program files/microchip/xc32/v4.35/bin/bin/../../lib/gcc/pic32mx/8.3.1/fpu64\libgcc.a(_udivdi3.o)
 .debug_loc     0x000000000000197c      0x99a c:/program files/microchip/xc32/v4.35/bin/bin/../../lib/gcc/pic32mx/8.3.1/fpu64\libgcc.a(_umoddi3.o)

.debug_macinfo
 *.elf(.debug_macinfo)
 *(.debug_macinfo)

.debug_weaknames
 *.elf(.debug_weaknames)
 *(.debug_weaknames)

.debug_funcnames
 *.elf(.debug_funcnames)
 *(.debug_funcnames)

.debug_typenames
 *.elf(.debug_typenames)
 *(.debug_typenames)

.debug_varnames
 *.elf(.debug_varnames)
 *(.debug_varnames)

.debug_pubtypes
 *.elf(.debug_pubtypes)
 *(.debug_pubtypes)

.debug_ranges   0x0000000000000000      0x3d8
 *.elf(.debug_ranges)
 *(.debug_ranges)
 .debug_ranges  0x0000000000000000       0x10 c:/program files/microchip/xc32/v4.35/bin/bin/../../lib/gcc/pic32mx/8.3.1/../../../../pic32mx/lib/fpu64\libpic32.a(default-bootstrap-exception-handler.o)
 .debug_ranges  0x0000000000000010       0x10 c:/program files/microchip/xc32/v4.35/bin/bin/../../lib/gcc/pic32mx/8.3.1/../../../../pic32mx/lib/fpu64\libpic32.a(default-on-reset.o)
 .debug_ranges  0x0000000000000020       0x10 c:/program files/microchip/xc32/v4.35/bin/bin/../../lib/gcc/pic32mx/8.3.1/../../../../pic32mx/lib/fpu64\libpic32.a(default-on-bootstrap.o)
 .debug_ranges  0x0000000000000030       0x10 c:/program files/microchip/xc32/v4.35/bin/bin/../../lib/gcc/pic32mx/8.3.1/../../../../pic32mx/lib/fpu64\libpic32.a(defaultinterrupt.o)
 .debug_ranges  0x0000000000000040       0x10 c:/program files/microchip/xc32/v4.35/bin/bin/../../lib/gcc/pic32mx/8.3.1/../../../../pic32mx/lib/fpu64\libpic32.a(default-general-exception-handler.o)
 .debug_ranges  0x0000000000000050       0x18 c:/program files/microchip/xc32/v4.35/bin/bin/../../lib/gcc/pic32mx/8.3.1/../../../../pic32mx/lib/fpu64\libc-musl.a(__sio_sprintf_dn.o)
 .debug_ranges  0x0000000000000068       0x10 c:/program files/microchip/xc32/v4.35/bin/bin/../../lib/gcc/pic32mx/8.3.1/../../../../pic32mx/lib/fpu64\libc-musl.a(__fmt_d.o)
 .debug_ranges  0x0000000000000078       0x10 c:/program files/microchip/xc32/v4.35/bin/bin/../../lib/gcc/pic32mx/8.3.1/../../../../pic32mx/lib/fpu64\libc-musl.a(__pop_int.o)
 .debug_ranges  0x0000000000000088       0x10 c:/program files/microchip/xc32/v4.35/bin/bin/../../lib/gcc/pic32mx/8.3.1/../../../../pic32mx/lib/fpu64\libc-musl.a(__pop_ptr.o)
 .debug_ranges  0x0000000000000098       0xe8 c:/program files/microchip/xc32/v4.35/bin/bin/../../lib/gcc/pic32mx/8.3.1/../../../../pic32mx/lib/fpu64\libc-musl.a(__printf_core.o)
 .debug_ranges  0x0000000000000180       0x28 c:/program files/microchip/xc32/v4.35/bin/bin/../../lib/gcc/pic32mx/8.3.1/../../../../pic32mx/lib/fpu64\libc-musl.a(atoi.o)
 .debug_ranges  0x00000000000001a8       0x10 c:/program files/microchip/xc32/v4.35/bin/bin/../../lib/gcc/pic32mx/8.3.1/../../../../pic32mx/lib/fpu64\libc-musl.a(memcpy.o)
 .debug_ranges  0x00000000000001b8       0x10 c:/program files/microchip/xc32/v4.35/bin/bin/../../lib/gcc/pic32mx/8.3.1/../../../../pic32mx/lib/fpu64\libc-musl.a(memset.o)
 .debug_ranges  0x00000000000001c8       0x10 c:/program files/microchip/xc32/v4.35/bin/bin/../../lib/gcc/pic32mx/8.3.1/../../../../pic32mx/lib/fpu64\libc-musl.a(strcat.o)
 .debug_ranges  0x00000000000001d8       0x18 c:/program files/microchip/xc32/v4.35/bin/bin/../../lib/gcc/pic32mx/8.3.1/../../../../pic32mx/lib/fpu64\libc-musl.a(tolower.o)
 .debug_ranges  0x00000000000001f0       0x10 c:/program files/microchip/xc32/v4.35/bin/bin/../../lib/gcc/pic32mx/8.3.1/../../../../pic32mx/lib/fpu64\libc-musl.a(__int_vsprintf.o)
 .debug_ranges  0x0000000000000200       0x10 c:/program files/microchip/xc32/v4.35/bin/bin/../../lib/gcc/pic32mx/8.3.1/../../../../pic32mx/lib/fpu64\libc-musl.a(__cvt_u.o)
 .debug_ranges  0x0000000000000210       0x10 c:/program files/microchip/xc32/v4.35/bin/bin/../../lib/gcc/pic32mx/8.3.1/../../../../pic32mx/lib/fpu64\libc-musl.a(__pop_float.o)
 .debug_ranges  0x0000000000000220       0x10 c:/program files/microchip/xc32/v4.35/bin/bin/../../lib/gcc/pic32mx/8.3.1/../../../../pic32mx/lib/fpu64\libc-musl.a(__int_vsnprintf.o)
 .debug_ranges  0x0000000000000230       0x10 c:/program files/microchip/xc32/v4.35/bin/bin/../../lib/gcc/pic32mx/8.3.1/../../../../pic32mx/lib/fpu64\libc-musl.a(__int_vfprintf.o)
 .debug_ranges  0x0000000000000240       0xd8 c:/program files/microchip/xc32/v4.35/bin/bin/../../lib/gcc/pic32mx/8.3.1/fpu64\libgcc.a(_udivdi3.o)
 .debug_ranges  0x0000000000000318       0xc0 c:/program files/microchip/xc32/v4.35/bin/bin/../../lib/gcc/pic32mx/8.3.1/fpu64\libgcc.a(_umoddi3.o)

.gnu.attributes
                0x0000000000000000       0x10
 *(.gnu.attributes)
 .gnu.attributes
                0x0000000000000000       0x10 c:/program files/microchip/xc32/v4.35/bin/bin/../../lib/gcc/pic32mx/8.3.1/../../../../pic32mx/lib/fpu64\debug-exception-return.o
 .gnu.attributes
                0x0000000000000010       0x10 build/default/production/source/applicationControl.o
 .gnu.attributes
                0x0000000000000020       0x10 build/default/production/source/platformMainMK.o
 .gnu.attributes
                0x0000000000000030       0x10 build/default/production/source/filtrace.o
 .gnu.attributes
                0x0000000000000040       0x10 build/default/production/source/dekoder.o
 .gnu.attributes
                0x0000000000000050       0x10 build/default/production/source/pamet.o
 .gnu.attributes
                0x0000000000000060       0x10 build/default/production/source/PWM.o
 .gnu.attributes
                0x0000000000000070       0x10 build/default/production/source/RTM_monitor.o
 .gnu.attributes
                0x0000000000000080       0x10 build/default/production/source/Hrad_pole.o
 .gnu.attributes
                0x0000000000000090       0x10 build/default/production/source/Capture.o
 .gnu.attributes
                0x00000000000000a0       0x10 lib\platformDepLib.X.a(VarConversion.o)
 .gnu.attributes
                0x00000000000000b0       0x10 lib\platformDepLib.X.a(messengerDuoUSB.o)
 .gnu.attributes
                0x00000000000000c0       0x10 lib\platformDepLib.X.a(platformControl.o)
 .gnu.attributes
                0x00000000000000d0       0x10 lib\platformDepLib.X.a(platformInitAdc.o)
 .gnu.attributes
                0x00000000000000e0       0x10 lib\platformDepLib.X.a(platformInitTimer1.o)
 .gnu.attributes
                0x00000000000000f0       0x10 lib\platformDepLib.X.a(platformInitTimer8.o)
 .gnu.attributes
                0x0000000000000100       0x10 lib\platformDepLib.X.a(platformInputCapture.o)
 .gnu.attributes
                0x0000000000000110       0x10 lib\platformDepLib.X.a(platformOutputCompare.o)
 .gnu.attributes
                0x0000000000000120       0x10 lib\platformDepLib.X.a(mesengerDuoUART.o)
 .gnu.attributes
                0x0000000000000130       0x10 lib\platformDepLib.X.a(mesengerFRAM.o)
 .gnu.attributes
                0x0000000000000140       0x10 C:\Users\samec\AppData\Local\Temp\ccc4siZ0.o
 .gnu.attributes
                0x0000000000000150       0x10 C:\Users\samec\AppData\Local\Temp\ccYT4Xoq.o
 .gnu.attributes
                0x0000000000000160       0x10 C:\Users\samec\AppData\Local\Temp\ccUIjBse.o
 .gnu.attributes
                0x0000000000000170       0x10 c:/program files/microchip/xc32/v4.35/bin/bin/../../lib/gcc/pic32mx/8.3.1/../../../../pic32mx/lib/./proc/32MK1024MCF100\default_isr_vectors.o
 .gnu.attributes
                0x0000000000000180       0x10 c:/program files/microchip/xc32/v4.35/bin/bin/../../lib/gcc/pic32mx/8.3.1/../../../../pic32mx/lib/fpu64\pic32_software_reset.o
 .gnu.attributes
                0x0000000000000190       0x10 c:/program files/microchip/xc32/v4.35/bin/bin/../../lib/gcc/pic32mx/8.3.1/../../../../pic32mx/lib/fpu64\libpic32.a(strcpy.o)
 .gnu.attributes
                0x00000000000001a0       0x10 c:/program files/microchip/xc32/v4.35/bin/bin/../../lib/gcc/pic32mx/8.3.1/../../../../pic32mx/lib/fpu64\libpic32.a(strlen.o)
 .gnu.attributes
                0x00000000000001b0       0x10 c:/program files/microchip/xc32/v4.35/bin/bin/../../lib/gcc/pic32mx/8.3.1/../../../../pic32mx/lib/fpu64\libpic32.a(default-bootstrap-exception-handler.o)
 .gnu.attributes
                0x00000000000001c0       0x10 c:/program files/microchip/xc32/v4.35/bin/bin/../../lib/gcc/pic32mx/8.3.1/../../../../pic32mx/lib/fpu64\libpic32.a(default-on-reset.o)
 .gnu.attributes
                0x00000000000001d0       0x10 c:/program files/microchip/xc32/v4.35/bin/bin/../../lib/gcc/pic32mx/8.3.1/../../../../pic32mx/lib/fpu64\libpic32.a(default-on-bootstrap.o)
 .gnu.attributes
                0x00000000000001e0       0x10 c:/program files/microchip/xc32/v4.35/bin/bin/../../lib/gcc/pic32mx/8.3.1/../../../../pic32mx/lib/fpu64\libpic32.a(default-nmi-handler.o)
 .gnu.attributes
                0x00000000000001f0       0x10 c:/program files/microchip/xc32/v4.35/bin/bin/../../lib/gcc/pic32mx/8.3.1/../../../../pic32mx/lib/fpu64\libpic32.a(pic32_data_init_core.o)
 .gnu.attributes
                0x0000000000000200       0x10 c:/program files/microchip/xc32/v4.35/bin/bin/../../lib/gcc/pic32mx/8.3.1/../../../../pic32mx/lib/fpu64\libpic32.a(general-exception.o)
 .gnu.attributes
                0x0000000000000210       0x10 c:/program files/microchip/xc32/v4.35/bin/bin/../../lib/gcc/pic32mx/8.3.1/../../../../pic32mx/lib/fpu64\libpic32.a(defaultinterrupt.o)
 .gnu.attributes
                0x0000000000000220       0x10 c:/program files/microchip/xc32/v4.35/bin/bin/../../lib/gcc/pic32mx/8.3.1/../../../../pic32mx/lib/fpu64\libpic32.a(default-general-exception-handler.o)
 .gnu.attributes
                0x0000000000000230       0x10 c:/program files/microchip/xc32/v4.35/bin/bin/../../lib/gcc/pic32mx/8.3.1/../../../../pic32mx/lib/fpu64\libc-musl.a(__sio_sprintf_dn.o)
 .gnu.attributes
                0x0000000000000240       0x10 c:/program files/microchip/xc32/v4.35/bin/bin/../../lib/gcc/pic32mx/8.3.1/../../../../pic32mx/lib/fpu64\libc-musl.a(__fmt_d.o)
 .gnu.attributes
                0x0000000000000250       0x10 c:/program files/microchip/xc32/v4.35/bin/bin/../../lib/gcc/pic32mx/8.3.1/../../../../pic32mx/lib/fpu64\libc-musl.a(__pop_int.o)
 .gnu.attributes
                0x0000000000000260       0x10 c:/program files/microchip/xc32/v4.35/bin/bin/../../lib/gcc/pic32mx/8.3.1/../../../../pic32mx/lib/fpu64\libc-musl.a(__pop_ptr.o)
 .gnu.attributes
                0x0000000000000270       0x10 c:/program files/microchip/xc32/v4.35/bin/bin/../../lib/gcc/pic32mx/8.3.1/../../../../pic32mx/lib/fpu64\libc-musl.a(__printf_core.o)
 .gnu.attributes
                0x0000000000000280       0x10 c:/program files/microchip/xc32/v4.35/bin/bin/../../lib/gcc/pic32mx/8.3.1/../../../../pic32mx/lib/fpu64\libc-musl.a(atoi.o)
 .gnu.attributes
                0x0000000000000290       0x10 c:/program files/microchip/xc32/v4.35/bin/bin/../../lib/gcc/pic32mx/8.3.1/../../../../pic32mx/lib/fpu64\libc-musl.a(memcpy.o)
 .gnu.attributes
                0x00000000000002a0       0x10 c:/program files/microchip/xc32/v4.35/bin/bin/../../lib/gcc/pic32mx/8.3.1/../../../../pic32mx/lib/fpu64\libc-musl.a(memset.o)
 .gnu.attributes
                0x00000000000002b0       0x10 c:/program files/microchip/xc32/v4.35/bin/bin/../../lib/gcc/pic32mx/8.3.1/../../../../pic32mx/lib/fpu64\libc-musl.a(strcat.o)
 .gnu.attributes
                0x00000000000002c0       0x10 c:/program files/microchip/xc32/v4.35/bin/bin/../../lib/gcc/pic32mx/8.3.1/../../../../pic32mx/lib/fpu64\libc-musl.a(tolower.o)
 .gnu.attributes
                0x00000000000002d0       0x10 c:/program files/microchip/xc32/v4.35/bin/bin/../../lib/gcc/pic32mx/8.3.1/../../../../pic32mx/lib/fpu64\libc-musl.a(__int_vsprintf.o)
 .gnu.attributes
                0x00000000000002e0       0x10 c:/program files/microchip/xc32/v4.35/bin/bin/../../lib/gcc/pic32mx/8.3.1/../../../../pic32mx/lib/fpu64\libc-musl.a(__cvt_u.o)
 .gnu.attributes
                0x00000000000002f0       0x10 c:/program files/microchip/xc32/v4.35/bin/bin/../../lib/gcc/pic32mx/8.3.1/../../../../pic32mx/lib/fpu64\libc-musl.a(__pop_float.o)
 .gnu.attributes
                0x0000000000000300       0x10 c:/program files/microchip/xc32/v4.35/bin/bin/../../lib/gcc/pic32mx/8.3.1/../../../../pic32mx/lib/fpu64\libc-musl.a(__int_vsnprintf.o)
 .gnu.attributes
                0x0000000000000310       0x10 c:/program files/microchip/xc32/v4.35/bin/bin/../../lib/gcc/pic32mx/8.3.1/../../../../pic32mx/lib/fpu64\libc-musl.a(__int_vfprintf.o)
 .gnu.attributes
                0x0000000000000320       0x10 c:/program files/microchip/xc32/v4.35/bin/bin/../../lib/gcc/pic32mx/8.3.1/fpu64\libgcc.a(_udivdi3.o)
 .gnu.attributes
                0x0000000000000330       0x10 c:/program files/microchip/xc32/v4.35/bin/bin/../../lib/gcc/pic32mx/8.3.1/fpu64\libgcc.a(_umoddi3.o)
 .gnu.attributes
                0x0000000000000340       0x10 c:/program files/microchip/xc32/v4.35/bin/bin/../../lib/gcc/pic32mx/8.3.1/../../../../pic32mx/lib/fpu64\libpic32.a(errno.o)
 .gnu.attributes
                0x0000000000000350       0x10 c:/program files/microchip/xc32/v4.35/bin/bin/../../lib/gcc/pic32mx/8.3.1/../../../../pic32mx/lib/./proc/32MK1024MCF100\vector_offset_init.o
 .gnu.attributes
                0x0000000000000360       0x10 c:/program files/microchip/xc32/v4.35/bin/bin/../../lib/gcc/pic32mx/8.3.1/../../../../pic32mx/lib/fpu64\libpic32.a(pic32_data_init_clear.o)
 .gnu.attributes
                0x0000000000000370       0x10 c:/program files/microchip/xc32/v4.35/bin/bin/../../lib/gcc/pic32mx/8.3.1/../../../../pic32mx/lib/fpu64\libpic32.a(pic32_data_init_copy.o)
OUTPUT(dist/default/production/dep.X.production.elf elf32-tradlittlemips)
LOAD data_init
LOAD stack

.reginfo        0x0000000000000000       0x18
 .reginfo       0x0000000000000000       0x18 c:/program files/microchip/xc32/v4.35/bin/bin/../../lib/gcc/pic32mx/8.3.1/../../../../pic32mx/lib/fpu64\debug-exception-return.o

.stack          0x0000000080000288      0x400
 .stack         0x0000000080000288      0x400 stack

.__vector_offset_BF8105B8_data
                0x00000000bf8105b8      0x1a0
 .__vector_offset_BF8105B8_data
                0x00000000bf8105b8      0x1a0 c:/program files/microchip/xc32/v4.35/bin/bin/../../lib/gcc/pic32mx/8.3.1/../../../../pic32mx/lib/./proc/32MK1024MCF100\vector_offset_init.o

.__vector_offset_BF810848_data
                0x00000000bf810848       0x94
 .__vector_offset_BF810848_data
                0x00000000bf810848       0x94 c:/program files/microchip/xc32/v4.35/bin/bin/../../lib/gcc/pic32mx/8.3.1/../../../../pic32mx/lib/./proc/32MK1024MCF100\vector_offset_init.o

.__vector_offset_BF8107D0_data
                0x00000000bf8107d0       0x74
 .__vector_offset_BF8107D0_data
                0x00000000bf8107d0       0x74 c:/program files/microchip/xc32/v4.35/bin/bin/../../lib/gcc/pic32mx/8.3.1/../../../../pic32mx/lib/./proc/32MK1024MCF100\vector_offset_init.o

.__vector_offset_BF810540_data
                0x00000000bf810540       0x70
 .__vector_offset_BF810540_data
                0x00000000bf810540       0x70 c:/program files/microchip/xc32/v4.35/bin/bin/../../lib/gcc/pic32mx/8.3.1/../../../../pic32mx/lib/./proc/32MK1024MCF100\vector_offset_init.o

.__vector_offset_BF81079C_data
                0x00000000bf81079c       0x30
 .__vector_offset_BF81079C_data
                0x00000000bf81079c       0x30 c:/program files/microchip/xc32/v4.35/bin/bin/../../lib/gcc/pic32mx/8.3.1/../../../../pic32mx/lib/./proc/32MK1024MCF100\vector_offset_init.o

.__vector_offset_BF81076C_data
                0x00000000bf81076c       0x24
 .__vector_offset_BF81076C_data
                0x00000000bf81076c       0x24 c:/program files/microchip/xc32/v4.35/bin/bin/../../lib/gcc/pic32mx/8.3.1/../../../../pic32mx/lib/./proc/32MK1024MCF100\vector_offset_init.o

.__vector_offset_BF8108F8_data
                0x00000000bf8108f8       0x24
 .__vector_offset_BF8108F8_data
                0x00000000bf8108f8       0x24 c:/program files/microchip/xc32/v4.35/bin/bin/../../lib/gcc/pic32mx/8.3.1/../../../../pic32mx/lib/./proc/32MK1024MCF100\vector_offset_init.o

.__vector_offset_BF810938_data
                0x00000000bf810938        0x8
 .__vector_offset_BF810938_data
                0x00000000bf810938        0x8 c:/program files/microchip/xc32/v4.35/bin/bin/../../lib/gcc/pic32mx/8.3.1/../../../../pic32mx/lib/./proc/32MK1024MCF100\vector_offset_init.o

.data%z1        0x0000000000000000        0x0
 .data          0x0000000000000000        0x0 c:/program files/microchip/xc32/v4.35/bin/bin/../../lib/gcc/pic32mx/8.3.1/../../../../pic32mx/lib/fpu64\libpic32.a(pic32_data_init_copy.o)

.data%z2        0x0000000000000000        0x0
 .data          0x0000000000000000        0x0 c:/program files/microchip/xc32/v4.35/bin/bin/../../lib/gcc/pic32mx/8.3.1/../../../../pic32mx/lib/fpu64\libpic32.a(pic32_data_init_clear.o)

.data%z3        0x0000000000000000        0x0
 .data          0x0000000000000000        0x0 c:/program files/microchip/xc32/v4.35/bin/bin/../../lib/gcc/pic32mx/8.3.1/../../../../pic32mx/lib/./proc/32MK1024MCF100\vector_offset_init.o

.data%z4        0x0000000000000000        0x0
 .data          0x0000000000000000        0x0 c:/program files/microchip/xc32/v4.35/bin/bin/../../lib/gcc/pic32mx/8.3.1/../../../../pic32mx/lib/fpu64\libpic32.a(errno.o)

.data%z5        0x0000000000000000        0x0
 .data          0x0000000000000000        0x0 c:/program files/microchip/xc32/v4.35/bin/bin/../../lib/gcc/pic32mx/8.3.1/fpu64\libgcc.a(_umoddi3.o)

.data%z6        0x0000000000000000        0x0
 .data          0x0000000000000000        0x0 c:/program files/microchip/xc32/v4.35/bin/bin/../../lib/gcc/pic32mx/8.3.1/fpu64\libgcc.a(_udivdi3.o)

.data%z7        0x0000000000000000        0x0
 .data          0x0000000000000000        0x0 c:/program files/microchip/xc32/v4.35/bin/bin/../../lib/gcc/pic32mx/8.3.1/../../../../pic32mx/lib/fpu64\libc-musl.a(__int_vfprintf.o)

.data%z8        0x0000000000000000        0x0
 .data          0x0000000000000000        0x0 c:/program files/microchip/xc32/v4.35/bin/bin/../../lib/gcc/pic32mx/8.3.1/../../../../pic32mx/lib/fpu64\libc-musl.a(__int_vsnprintf.o)

.data%z9        0x0000000000000000        0x0
 .data          0x0000000000000000        0x0 c:/program files/microchip/xc32/v4.35/bin/bin/../../lib/gcc/pic32mx/8.3.1/../../../../pic32mx/lib/fpu64\libc-musl.a(__pop_float.o)

.data%z10       0x0000000000000000        0x0
 .data          0x0000000000000000        0x0 c:/program files/microchip/xc32/v4.35/bin/bin/../../lib/gcc/pic32mx/8.3.1/../../../../pic32mx/lib/fpu64\libc-musl.a(__cvt_u.o)

.data%z11       0x0000000000000000        0x0
 .data          0x0000000000000000        0x0 c:/program files/microchip/xc32/v4.35/bin/bin/../../lib/gcc/pic32mx/8.3.1/../../../../pic32mx/lib/fpu64\libc-musl.a(__int_vsprintf.o)

.data%z12       0x0000000000000000        0x0
 .data          0x0000000000000000        0x0 c:/program files/microchip/xc32/v4.35/bin/bin/../../lib/gcc/pic32mx/8.3.1/../../../../pic32mx/lib/fpu64\libc-musl.a(tolower.o)

.data%z13       0x0000000000000000        0x0
 .data          0x0000000000000000        0x0 c:/program files/microchip/xc32/v4.35/bin/bin/../../lib/gcc/pic32mx/8.3.1/../../../../pic32mx/lib/fpu64\libc-musl.a(strcat.o)

.data%z14       0x0000000000000000        0x0
 .data          0x0000000000000000        0x0 c:/program files/microchip/xc32/v4.35/bin/bin/../../lib/gcc/pic32mx/8.3.1/../../../../pic32mx/lib/fpu64\libc-musl.a(memset.o)

.data%z15       0x0000000000000000        0x0
 .data          0x0000000000000000        0x0 c:/program files/microchip/xc32/v4.35/bin/bin/../../lib/gcc/pic32mx/8.3.1/../../../../pic32mx/lib/fpu64\libc-musl.a(memcpy.o)

.data%z16       0x0000000000000000        0x0
 .data          0x0000000000000000        0x0 c:/program files/microchip/xc32/v4.35/bin/bin/../../lib/gcc/pic32mx/8.3.1/../../../../pic32mx/lib/fpu64\libc-musl.a(atoi.o)

.data%z17       0x0000000000000000        0x0
 .data          0x0000000000000000        0x0 c:/program files/microchip/xc32/v4.35/bin/bin/../../lib/gcc/pic32mx/8.3.1/../../../../pic32mx/lib/fpu64\libc-musl.a(__printf_core.o)

.data%z18       0x0000000000000000        0x0
 .data          0x0000000000000000        0x0 c:/program files/microchip/xc32/v4.35/bin/bin/../../lib/gcc/pic32mx/8.3.1/../../../../pic32mx/lib/fpu64\libc-musl.a(__pop_ptr.o)

.data%z19       0x0000000000000000        0x0
 .data          0x0000000000000000        0x0 c:/program files/microchip/xc32/v4.35/bin/bin/../../lib/gcc/pic32mx/8.3.1/../../../../pic32mx/lib/fpu64\libc-musl.a(__pop_int.o)

.data%z20       0x0000000000000000        0x0
 .data          0x0000000000000000        0x0 c:/program files/microchip/xc32/v4.35/bin/bin/../../lib/gcc/pic32mx/8.3.1/../../../../pic32mx/lib/fpu64\libc-musl.a(__fmt_d.o)

.data%z21       0x0000000000000000        0x0
 .data          0x0000000000000000        0x0 c:/program files/microchip/xc32/v4.35/bin/bin/../../lib/gcc/pic32mx/8.3.1/../../../../pic32mx/lib/fpu64\libc-musl.a(__sio_sprintf_dn.o)

.data%z22       0x0000000000000000        0x0
 .data          0x0000000000000000        0x0 c:/program files/microchip/xc32/v4.35/bin/bin/../../lib/gcc/pic32mx/8.3.1/../../../../pic32mx/lib/fpu64\libpic32.a(default-general-exception-handler.o)

.data%z23       0x0000000000000000        0x0
 .data          0x0000000000000000        0x0 c:/program files/microchip/xc32/v4.35/bin/bin/../../lib/gcc/pic32mx/8.3.1/../../../../pic32mx/lib/fpu64\libpic32.a(defaultinterrupt.o)

.data%z24       0x0000000000000000        0x0
 .data          0x0000000000000000        0x0 c:/program files/microchip/xc32/v4.35/bin/bin/../../lib/gcc/pic32mx/8.3.1/../../../../pic32mx/lib/fpu64\libpic32.a(general-exception.o)

.data%z25       0x0000000000000000        0x0
 .data          0x0000000000000000        0x0 c:/program files/microchip/xc32/v4.35/bin/bin/../../lib/gcc/pic32mx/8.3.1/../../../../pic32mx/lib/fpu64\libpic32.a(pic32_data_init_core.o)

.data%z26       0x0000000000000000        0x0
 .data          0x0000000000000000        0x0 c:/program files/microchip/xc32/v4.35/bin/bin/../../lib/gcc/pic32mx/8.3.1/../../../../pic32mx/lib/fpu64\libpic32.a(default-nmi-handler.o)

.data%z27       0x0000000000000000        0x0
 .data          0x0000000000000000        0x0 c:/program files/microchip/xc32/v4.35/bin/bin/../../lib/gcc/pic32mx/8.3.1/../../../../pic32mx/lib/fpu64\libpic32.a(default-on-bootstrap.o)

.data%z28       0x0000000000000000        0x0
 .data          0x0000000000000000        0x0 c:/program files/microchip/xc32/v4.35/bin/bin/../../lib/gcc/pic32mx/8.3.1/../../../../pic32mx/lib/fpu64\libpic32.a(default-on-reset.o)

.data%z29       0x0000000000000000        0x0
 .data          0x0000000000000000        0x0 c:/program files/microchip/xc32/v4.35/bin/bin/../../lib/gcc/pic32mx/8.3.1/../../../../pic32mx/lib/fpu64\libpic32.a(default-bootstrap-exception-handler.o)

.data%z30       0x0000000000000000        0x0
 .data          0x0000000000000000        0x0 c:/program files/microchip/xc32/v4.35/bin/bin/../../lib/gcc/pic32mx/8.3.1/../../../../pic32mx/lib/fpu64\libpic32.a(strlen.o)

.data%z31       0x0000000000000000        0x0
 .data          0x0000000000000000        0x0 c:/program files/microchip/xc32/v4.35/bin/bin/../../lib/gcc/pic32mx/8.3.1/../../../../pic32mx/lib/fpu64\libpic32.a(strcpy.o)

.data%z32       0x0000000000000000        0x0
 .data          0x0000000000000000        0x0 c:/program files/microchip/xc32/v4.35/bin/bin/../../lib/gcc/pic32mx/8.3.1/../../../../pic32mx/lib/fpu64\pic32_software_reset.o

.data%z33       0x0000000000000000        0x0
 .data          0x0000000000000000        0x0 c:/program files/microchip/xc32/v4.35/bin/bin/../../lib/gcc/pic32mx/8.3.1/../../../../pic32mx/lib/./proc/32MK1024MCF100\default_isr_vectors.o

.data%z34       0x0000000000000000        0x0
 .data          0x0000000000000000        0x0 C:\Users\samec\AppData\Local\Temp\ccUIjBse.o

.data%z35       0x0000000000000000        0x0
 .data          0x0000000000000000        0x0 C:\Users\samec\AppData\Local\Temp\ccYT4Xoq.o

.data%z36       0x0000000000000000        0x0
 .data          0x0000000000000000        0x0 C:\Users\samec\AppData\Local\Temp\ccc4siZ0.o

.data%z37       0x0000000000000000        0x0
 .data          0x0000000000000000        0x0 lib\platformDepLib.X.a(mesengerFRAM.o)

.data%z38       0x0000000000000000        0x0
 .data          0x0000000000000000        0x0 lib\platformDepLib.X.a(mesengerDuoUART.o)

.data%z39       0x0000000000000000        0x0
 .data          0x0000000000000000        0x0 lib\platformDepLib.X.a(platformOutputCompare.o)

.data%z40       0x0000000000000000        0x0
 .data          0x0000000000000000        0x0 lib\platformDepLib.X.a(platformInputCapture.o)

.data%z41       0x0000000000000000        0x0
 .data          0x0000000000000000        0x0 lib\platformDepLib.X.a(platformInitTimer8.o)

.data%z42       0x0000000000000000        0x0
 .data          0x0000000000000000        0x0 lib\platformDepLib.X.a(platformInitTimer1.o)

.data%z43       0x0000000000000000        0x0
 .data          0x0000000000000000        0x0 lib\platformDepLib.X.a(platformInitAdc.o)

.data%z44       0x0000000000000000        0x0
 .data          0x0000000000000000        0x0 lib\platformDepLib.X.a(platformControl.o)

.data%z45       0x0000000000000000        0x0
 .data          0x0000000000000000        0x0 lib\platformDepLib.X.a(messengerDuoUSB.o)

.data%z46       0x0000000000000000        0x0
 .data          0x0000000000000000        0x0 lib\platformDepLib.X.a(VarConversion.o)

.data%z47       0x0000000000000000        0x0
 .data          0x0000000000000000        0x0 build/default/production/source/Capture.o

.data%z48       0x0000000000000000        0x0
 .data          0x0000000000000000        0x0 build/default/production/source/Hrad_pole.o

.data%z49       0x0000000000000000        0x0
 .data          0x0000000000000000        0x0 build/default/production/source/RTM_monitor.o

.data%z50       0x0000000000000000        0x0
 .data          0x0000000000000000        0x0 build/default/production/source/PWM.o

.data%z51       0x0000000000000000        0x0
 .data          0x0000000000000000        0x0 build/default/production/source/pamet.o

.data%z52       0x0000000000000000        0x0
 .data          0x0000000000000000        0x0 build/default/production/source/dekoder.o

.data%z53       0x0000000000000000        0x0
 .data          0x0000000000000000        0x0 build/default/production/source/filtrace.o

.data%z54       0x0000000000000000        0x0
 .data          0x0000000000000000        0x0 build/default/production/source/platformMainMK.o

.data%z55       0x0000000000000000        0x0
 .data          0x0000000000000000        0x0 build/default/production/source/applicationControl.o

.data%z56       0x0000000000000000        0x0
 .data          0x0000000000000000        0x0 c:/program files/microchip/xc32/v4.35/bin/bin/../../lib/gcc/pic32mx/8.3.1/../../../../pic32mx/lib/fpu64\debug-exception-return.o

.bss.errno      0x0000000080000258        0x4
 .bss.errno     0x0000000080000258        0x4 c:/program files/microchip/xc32/v4.35/bin/bin/../../lib/gcc/pic32mx/8.3.1/../../../../pic32mx/lib/fpu64\libpic32.a(errno.o)
                0x0000000080000258                errno

.bss%z57        0x0000000000000000        0x0
 .bss           0x0000000000000000        0x0 c:/program files/microchip/xc32/v4.35/bin/bin/../../lib/gcc/pic32mx/8.3.1/../../../../pic32mx/lib/fpu64\libpic32.a(pic32_data_init_copy.o)

.bss%z58        0x0000000000000000        0x0
 .bss           0x0000000000000000        0x0 c:/program files/microchip/xc32/v4.35/bin/bin/../../lib/gcc/pic32mx/8.3.1/../../../../pic32mx/lib/fpu64\libpic32.a(pic32_data_init_clear.o)

.bss%z59        0x0000000000000000        0x0
 .bss           0x0000000000000000        0x0 c:/program files/microchip/xc32/v4.35/bin/bin/../../lib/gcc/pic32mx/8.3.1/../../../../pic32mx/lib/./proc/32MK1024MCF100\vector_offset_init.o

.bss%z60        0x0000000000000000        0x0
 .bss           0x0000000000000000        0x0 c:/program files/microchip/xc32/v4.35/bin/bin/../../lib/gcc/pic32mx/8.3.1/../../../../pic32mx/lib/fpu64\libpic32.a(errno.o)

.bss%z61        0x0000000000000000        0x0
 .bss           0x0000000000000000        0x0 c:/program files/microchip/xc32/v4.35/bin/bin/../../lib/gcc/pic32mx/8.3.1/fpu64\libgcc.a(_umoddi3.o)

.bss%z62        0x0000000000000000        0x0
 .bss           0x0000000000000000        0x0 c:/program files/microchip/xc32/v4.35/bin/bin/../../lib/gcc/pic32mx/8.3.1/fpu64\libgcc.a(_udivdi3.o)

.bss%z63        0x0000000000000000        0x0
 .bss           0x0000000000000000        0x0 c:/program files/microchip/xc32/v4.35/bin/bin/../../lib/gcc/pic32mx/8.3.1/../../../../pic32mx/lib/fpu64\libc-musl.a(__int_vfprintf.o)

.bss%z64        0x0000000000000000        0x0
 .bss           0x0000000000000000        0x0 c:/program files/microchip/xc32/v4.35/bin/bin/../../lib/gcc/pic32mx/8.3.1/../../../../pic32mx/lib/fpu64\libc-musl.a(__int_vsnprintf.o)

.bss%z65        0x0000000000000000        0x0
 .bss           0x0000000000000000        0x0 c:/program files/microchip/xc32/v4.35/bin/bin/../../lib/gcc/pic32mx/8.3.1/../../../../pic32mx/lib/fpu64\libc-musl.a(__pop_float.o)

.bss%z66        0x0000000000000000        0x0
 .bss           0x0000000000000000        0x0 c:/program files/microchip/xc32/v4.35/bin/bin/../../lib/gcc/pic32mx/8.3.1/../../../../pic32mx/lib/fpu64\libc-musl.a(__cvt_u.o)

.bss%z67        0x0000000000000000        0x0
 .bss           0x0000000000000000        0x0 c:/program files/microchip/xc32/v4.35/bin/bin/../../lib/gcc/pic32mx/8.3.1/../../../../pic32mx/lib/fpu64\libc-musl.a(__int_vsprintf.o)

.bss%z68        0x0000000000000000        0x0
 .bss           0x0000000000000000        0x0 c:/program files/microchip/xc32/v4.35/bin/bin/../../lib/gcc/pic32mx/8.3.1/../../../../pic32mx/lib/fpu64\libc-musl.a(tolower.o)

.bss%z69        0x0000000000000000        0x0
 .bss           0x0000000000000000        0x0 c:/program files/microchip/xc32/v4.35/bin/bin/../../lib/gcc/pic32mx/8.3.1/../../../../pic32mx/lib/fpu64\libc-musl.a(strcat.o)

.bss%z70        0x0000000000000000        0x0
 .bss           0x0000000000000000        0x0 c:/program files/microchip/xc32/v4.35/bin/bin/../../lib/gcc/pic32mx/8.3.1/../../../../pic32mx/lib/fpu64\libc-musl.a(memset.o)

.bss%z71        0x0000000000000000        0x0
 .bss           0x0000000000000000        0x0 c:/program files/microchip/xc32/v4.35/bin/bin/../../lib/gcc/pic32mx/8.3.1/../../../../pic32mx/lib/fpu64\libc-musl.a(memcpy.o)

.bss%z72        0x0000000000000000        0x0
 .bss           0x0000000000000000        0x0 c:/program files/microchip/xc32/v4.35/bin/bin/../../lib/gcc/pic32mx/8.3.1/../../../../pic32mx/lib/fpu64\libc-musl.a(atoi.o)

.bss%z73        0x0000000000000000        0x0
 .bss           0x0000000000000000        0x0 c:/program files/microchip/xc32/v4.35/bin/bin/../../lib/gcc/pic32mx/8.3.1/../../../../pic32mx/lib/fpu64\libc-musl.a(__printf_core.o)

.bss%z74        0x0000000000000000        0x0
 .bss           0x0000000000000000        0x0 c:/program files/microchip/xc32/v4.35/bin/bin/../../lib/gcc/pic32mx/8.3.1/../../../../pic32mx/lib/fpu64\libc-musl.a(__pop_ptr.o)

.bss%z75        0x0000000000000000        0x0
 .bss           0x0000000000000000        0x0 c:/program files/microchip/xc32/v4.35/bin/bin/../../lib/gcc/pic32mx/8.3.1/../../../../pic32mx/lib/fpu64\libc-musl.a(__pop_int.o)

.bss%z76        0x0000000000000000        0x0
 .bss           0x0000000000000000        0x0 c:/program files/microchip/xc32/v4.35/bin/bin/../../lib/gcc/pic32mx/8.3.1/../../../../pic32mx/lib/fpu64\libc-musl.a(__fmt_d.o)

.bss%z77        0x0000000000000000        0x0
 .bss           0x0000000000000000        0x0 c:/program files/microchip/xc32/v4.35/bin/bin/../../lib/gcc/pic32mx/8.3.1/../../../../pic32mx/lib/fpu64\libc-musl.a(__sio_sprintf_dn.o)

.bss%z78        0x0000000000000000        0x0
 .bss           0x0000000000000000        0x0 c:/program files/microchip/xc32/v4.35/bin/bin/../../lib/gcc/pic32mx/8.3.1/../../../../pic32mx/lib/fpu64\libpic32.a(default-general-exception-handler.o)

.bss%z79        0x0000000000000000        0x0
 .bss           0x0000000000000000        0x0 c:/program files/microchip/xc32/v4.35/bin/bin/../../lib/gcc/pic32mx/8.3.1/../../../../pic32mx/lib/fpu64\libpic32.a(defaultinterrupt.o)

.bss%z80        0x0000000000000000        0x0
 .bss           0x0000000000000000        0x0 c:/program files/microchip/xc32/v4.35/bin/bin/../../lib/gcc/pic32mx/8.3.1/../../../../pic32mx/lib/fpu64\libpic32.a(general-exception.o)

.bss%z81        0x0000000000000000        0x0
 .bss           0x0000000000000000        0x0 c:/program files/microchip/xc32/v4.35/bin/bin/../../lib/gcc/pic32mx/8.3.1/../../../../pic32mx/lib/fpu64\libpic32.a(pic32_data_init_core.o)

.bss%z82        0x0000000000000000        0x0
 .bss           0x0000000000000000        0x0 c:/program files/microchip/xc32/v4.35/bin/bin/../../lib/gcc/pic32mx/8.3.1/../../../../pic32mx/lib/fpu64\libpic32.a(default-nmi-handler.o)

.bss%z83        0x0000000000000000        0x0
 .bss           0x0000000000000000        0x0 c:/program files/microchip/xc32/v4.35/bin/bin/../../lib/gcc/pic32mx/8.3.1/../../../../pic32mx/lib/fpu64\libpic32.a(default-on-bootstrap.o)

.bss%z84        0x0000000000000000        0x0
 .bss           0x0000000000000000        0x0 c:/program files/microchip/xc32/v4.35/bin/bin/../../lib/gcc/pic32mx/8.3.1/../../../../pic32mx/lib/fpu64\libpic32.a(default-on-reset.o)

.bss%z85        0x0000000000000000        0x0
 .bss           0x0000000000000000        0x0 c:/program files/microchip/xc32/v4.35/bin/bin/../../lib/gcc/pic32mx/8.3.1/../../../../pic32mx/lib/fpu64\libpic32.a(default-bootstrap-exception-handler.o)

.bss%z86        0x0000000000000000        0x0
 .bss           0x0000000000000000        0x0 c:/program files/microchip/xc32/v4.35/bin/bin/../../lib/gcc/pic32mx/8.3.1/../../../../pic32mx/lib/fpu64\libpic32.a(strlen.o)

.bss%z87        0x0000000000000000        0x0
 .bss           0x0000000000000000        0x0 c:/program files/microchip/xc32/v4.35/bin/bin/../../lib/gcc/pic32mx/8.3.1/../../../../pic32mx/lib/fpu64\libpic32.a(strcpy.o)

.bss%z88        0x0000000000000000        0x0
 .bss           0x0000000000000000        0x0 c:/program files/microchip/xc32/v4.35/bin/bin/../../lib/gcc/pic32mx/8.3.1/../../../../pic32mx/lib/fpu64\pic32_software_reset.o

.bss%z89        0x0000000000000000        0x0
 .bss           0x0000000000000000        0x0 c:/program files/microchip/xc32/v4.35/bin/bin/../../lib/gcc/pic32mx/8.3.1/../../../../pic32mx/lib/./proc/32MK1024MCF100\default_isr_vectors.o

.bss%z90        0x0000000000000000        0x0
 .bss           0x0000000000000000        0x0 C:\Users\samec\AppData\Local\Temp\ccUIjBse.o

.bss%z91        0x0000000000000000        0x0
 .bss           0x0000000000000000        0x0 C:\Users\samec\AppData\Local\Temp\ccYT4Xoq.o

.bss%z92        0x0000000000000000        0x0
 .bss           0x0000000000000000        0x0 C:\Users\samec\AppData\Local\Temp\ccc4siZ0.o

.bss%z93        0x0000000000000000        0x0
 .bss           0x0000000000000000        0x0 lib\platformDepLib.X.a(mesengerFRAM.o)

.bss%z94        0x0000000000000000        0x0
 .bss           0x0000000000000000        0x0 lib\platformDepLib.X.a(mesengerDuoUART.o)

.bss%z95        0x0000000000000000        0x0
 .bss           0x0000000000000000        0x0 lib\platformDepLib.X.a(platformOutputCompare.o)

.bss%z96        0x0000000000000000        0x0
 .bss           0x0000000000000000        0x0 lib\platformDepLib.X.a(platformInputCapture.o)

.bss%z97        0x0000000000000000        0x0
 .bss           0x0000000000000000        0x0 lib\platformDepLib.X.a(platformInitTimer8.o)

.bss%z98        0x0000000000000000        0x0
 .bss           0x0000000000000000        0x0 lib\platformDepLib.X.a(platformInitTimer1.o)

.bss%z99        0x0000000000000000        0x0
 .bss           0x0000000000000000        0x0 lib\platformDepLib.X.a(platformInitAdc.o)

.bss%z100       0x0000000000000000        0x0
 .bss           0x0000000000000000        0x0 lib\platformDepLib.X.a(platformControl.o)

.bss%z101       0x0000000000000000        0x0
 .bss           0x0000000000000000        0x0 lib\platformDepLib.X.a(messengerDuoUSB.o)

.bss%z102       0x0000000000000000        0x0
 .bss           0x0000000000000000        0x0 lib\platformDepLib.X.a(VarConversion.o)

.bss%z103       0x0000000000000000        0x0
 .bss           0x0000000000000000        0x0 build/default/production/source/Capture.o

.bss%z104       0x0000000000000000        0x0
 .bss           0x0000000000000000        0x0 build/default/production/source/Hrad_pole.o

.bss%z105       0x0000000000000000        0x0
 .bss           0x0000000000000000        0x0 build/default/production/source/RTM_monitor.o

.bss%z106       0x0000000000000000        0x0
 .bss           0x0000000000000000        0x0 build/default/production/source/PWM.o

.bss%z107       0x0000000000000000        0x0
 .bss           0x0000000000000000        0x0 build/default/production/source/pamet.o

.bss%z108       0x0000000000000000        0x0
 .bss           0x0000000000000000        0x0 build/default/production/source/dekoder.o

.bss%z109       0x0000000000000000        0x0
 .bss           0x0000000000000000        0x0 build/default/production/source/filtrace.o

.bss%z110       0x0000000000000000        0x0
 .bss           0x0000000000000000        0x0 build/default/production/source/platformMainMK.o

.bss%z111       0x0000000000000000        0x0
 .bss           0x0000000000000000        0x0 build/default/production/source/applicationControl.o

.bss%z112       0x0000000000000000        0x0
 .bss           0x0000000000000000        0x0 c:/program files/microchip/xc32/v4.35/bin/bin/../../lib/gcc/pic32mx/8.3.1/../../../../pic32mx/lib/fpu64\debug-exception-return.o

._debug_exception
                0x00000000bfc00480       0x2c
 ._debug_exception
                0x00000000bfc00480       0x2c c:/program files/microchip/xc32/v4.35/bin/bin/../../lib/gcc/pic32mx/8.3.1/../../../../pic32mx/lib/fpu64\debug-exception-return.o
                0x00000000bfc00480                __DbgExecReturn

.text           0x000000009d0002f0     0x4204
 .text          0x000000009d0002f0     0x2208 lib\platformDepLib.X.a(platformControl.o)
                0x000000009d0002f0                getPlatformDepVersion
                0x000000009d000314                getPlatformDepDate
                0x000000009d00033c                configPlatformAutoMode
                0x000000009d000374                configPlatformUserMode
                0x000000009d000444                runPlatform
                0x000000009d00177c                getButtonS1
                0x000000009d0017a0                getButtonS2
                0x000000009d0017c4                getButtonS3
                0x000000009d0017e8                getButtonS4
                0x000000009d00180c                getButtonS5
                0x000000009d00184c                getButtonS6
                0x000000009d00188c                getButtonS7
                0x000000009d0018cc                getButtonS8
                0x000000009d00190c                getCoderChannelA
                0x000000009d00194c                getCoderChannelB
                0x000000009d00198c                getCoderButtonSw
                0x000000009d0019d4                setLedV1
                0x000000009d001a14                setLedV2
                0x000000009d001a54                setLedV3
                0x000000009d001a94                setLedV4
                0x000000009d001ad4                setLedV5
                0x000000009d001b24                setLedV6
                0x000000009d001b74                setLedV7
                0x000000009d001bc4                setLedV8
                0x000000009d001c14                setCoderLedHL
                0x000000009d001c58                setCoderLedA
                0x000000009d001c9c                setCoderLedB
                0x000000009d001ce0                setCoderLedLL
                0x000000009d001d24                setFpgaLedV1
                0x000000009d001d60                setLedV13
                0x000000009d001d9c                setFpgaLedV2
                0x000000009d001dd8                setLedV14
                0x000000009d001e14                setFpgaLedV3
                0x000000009d001e50                setLedV15
                0x000000009d001e8c                setFpgaLedV4
                0x000000009d001ec8                setLedV16
                0x000000009d001f04                setFpgaLedV5
                0x000000009d001f40                setLedV17
                0x000000009d001f7c                setFpgaLedV6
                0x000000009d001fb8                setLedV18
                0x000000009d001ff4                setFpgaLedV7
                0x000000009d002030                setLedV19
                0x000000009d00206c                setFpgaLedV8
                0x000000009d0020a8                setLedV20
                0x000000009d0020e4                setFpgaLedV9
                0x000000009d002120                setLedV21
                0x000000009d00215c                setFpgaLedV10
                0x000000009d002198                setLedV22
                0x000000009d0021d4                setFpgaLedV11
                0x000000009d002210                setLedV23
                0x000000009d00224c                setFpgaLedV12
                0x000000009d002288                setLedV24
                0x000000009d0022c4                setFpgaVxValue
                0x000000009d002308                setV12toV23Value
                0x000000009d00234c                isUserMode
                0x000000009d00238c                isAutoMode
                0x000000009d0023c8                setSimulatorOn
                0x000000009d002414                setSimulatorDir
                0x000000009d002460                setSimulatorUp
                0x000000009d0024ac                setSimulatorDown
 .text          0x000000009d0024f8     0x1ffc lib\platformDepLib.X.a(mesengerDuoUART.o)
                0x000000009d0024f8                getMessengerUARTVersion
                0x000000009d00251c                getMessengerUARTDate
                0x000000009d002544                getMessengerUARTRxRxsubTxTxsubPriority
                0x000000009d002568                getMessengerUARTmkUartNo
                0x000000009d00258c                initSendGetMessageUART
                0x000000009d002898                sendMessageUART
                0x000000009d002b94                sendTableTerminalMessageUART
                0x000000009d002c84                sendCharUART
                0x000000009d002d3c                getMessageUART
                0x000000009d003060                initSendGetMessageUARTn3
                0x000000009d00336c                sendMessageUARTn3
                0x000000009d0036a4                sendCharUARTn3
                0x000000009d00375c                getMessageUARTn3
                0x000000009d003be4                uart6TransmitHandler
                0x000000009d003cfc                uart6ReceiveHandler
                0x000000009d003fb0                uart6FaultHandler
                0x000000009d00406c                uart3TransmitHandler
                0x000000009d004184                uart3ReceiveHandler
                0x000000009d004438                uart3FaultHandler

.text           0x000000009d0044f4     0x2534
 .text          0x000000009d0044f4     0x1530 lib\platformDepLib.X.a(platformInitAdc.o)
                0x000000009d0044f4                initADC
                0x000000009d0051c4                bkgADC
                0x000000009d0052bc                getPotentiometerValue
                0x000000009d0052e0                getAdc1Value
                0x000000009d00530c                getAdc2Value
                0x000000009d005338                getAdc3Value
                0x000000009d005364                setComparator1HighLimit
                0x000000009d0053a0                setComparator1LowLimit
                0x000000009d0053d8                getConverterUlegErrorFlag
                0x000000009d005410                getConverterVlegErrorFlag
                0x000000009d005448                getConverterWlegErrorFlag
                0x000000009d005480                setConverterUlegErrorFlag
                0x000000009d0054c0                setConverterVlegErrorFlag
                0x000000009d005500                setConverterWlegErrorFlag
                0x000000009d005540                adc1Handler
                0x000000009d0055d8                adc2Handler
                0x000000009d005670                adc3Handler
                0x000000009d005708                adcFilter1Handler
                0x000000009d0057ec                adcFilter2Handler
                0x000000009d005898                adcFilter3Handler
                0x000000009d005934                adcComparator1Handler
 .text          0x000000009d005a24     0x1004 lib\platformDepLib.X.a(messengerDuoUSB.o)
                0x000000009d005a24                getMessengerUSBVersion
                0x000000009d005a48                getMessengerUSBDate
                0x000000009d005a70                getMessengerUSBRxRxsubTxTxsubPriority
                0x000000009d005a94                getMessengerUSBmkUartNo
                0x000000009d005ab8                initSendGetMessageUSB
                0x000000009d005dd4                sendMessageUSB
                0x000000009d0060d4                sendTableTerminalMessageUSB
                0x000000009d0061c4                getMessageUSB
                0x000000009d00664c                uart1TransmitHandler
                0x000000009d006774                uart1ReceiveHandler

.text           0x000000009d006a28     0x1200
 .text          0x000000009d006a28      0x900 build/default/production/source/Capture.o
                0x000000009d006a28                initVypocetOtacekASmeru
                0x000000009d006a68                initCapture
                0x000000009d006d1c                IC7_IntHandler
                0x000000009d007034                IC7IntErrorHandler
                0x000000009d0070ec                T9_IntHandler
                0x000000009d0071cc                runVypocetOtacekASmeru
                0x000000009d0072dc                getVypocetOtacekASmeru
 .text          0x000000009d007328      0x900 lib\platformDepLib.X.a(mesengerFRAM.o)
                0x000000009d007328                initSendGetMessageFRAM
                0x000000009d007670                sendMessageFRAM
                0x000000009d007898                getMessageFRAM
                0x000000009d007ab0                writeUnprotectFRAM
                0x000000009d007b44                readStatusFRAM

.text           0x000000009d007c28      0x7e8
 .text          0x000000009d007c28      0x7e8 build/default/production/source/dekoder.o
                0x000000009d007c28                initDekoder
                0x000000009d007c6c                runDekoderSmeru
                0x000000009d008270                runSignalizaceMaxDekoderu
                0x000000009d0082d4                runSignalizaceMinDekoderu
                0x000000009d008338                getDekoderSmeru
                0x000000009d008364                getPrepocetDekoderu

.text.__printf_core
                0x000000009d008410      0x5a4
 .text.__printf_core
                0x000000009d008410      0x5a4 c:/program files/microchip/xc32/v4.35/bin/bin/../../lib/gcc/pic32mx/8.3.1/../../../../pic32mx/lib/fpu64\libc-musl.a(__printf_core.o)
                0x000000009d008410                __printf_core

.dinit          0x000000009d0089b4      0x540
 .dinit         0x000000009d0089b4      0x540 data_init

.text           0x000000009d008ef4      0x7ec
 .text          0x000000009d008ef4      0x41c build/default/production/source/pamet.o
                0x000000009d008ef4                initPametTlacitka
                0x000000009d008f38                initZat
                0x000000009d008f90                runPametTlacitka
                0x000000009d00910c                getPametTlacitkaOutput
                0x000000009d009138                signalizaceLED
                0x000000009d009264                getZatezovatel
 .text          0x000000009d009310      0x3d0 build/default/production/source/applicationControl.o
                0x000000009d009310                configApplication
                0x000000009d009434                runApplication

.text           0x000000009d0096e0      0x774
 .text          0x000000009d0096e0      0x3bc c:/program files/microchip/xc32/v4.35/bin/bin/../../lib/gcc/pic32mx/8.3.1/fpu64\libgcc.a(_udivdi3.o)
                0x000000009d0096e0                __udivdi3
 .text          0x000000009d009a9c      0x3b8 c:/program files/microchip/xc32/v4.35/bin/bin/../../lib/gcc/pic32mx/8.3.1/fpu64\libgcc.a(_umoddi3.o)
                0x000000009d009a9c                __umoddi3

.text           0x000000009d009e54      0x734
 .text          0x000000009d009e54      0x3b4 build/default/production/source/RTM_monitor.o
                0x000000009d009e54                initPrepinacRTM
                0x000000009d009e84                runKomunikaceRTM
 .text          0x000000009d00a208      0x380 lib\platformDepLib.X.a(platformOutputCompare.o)
                0x000000009d00a208                setOutputCompare1asPwmOutput
                0x000000009d00a3cc                setSinglePhaseConverter
                0x000000009d00a400                setEnableConverter
                0x000000009d00a438                setDisableConverter
                0x000000009d00a46c                setTestPinIRCAasPwmOutput
                0x000000009d00a4a4                setTestPinIRCAasIrcOutput
                0x000000009d00a4d8                getPwmOutputValue
                0x000000009d00a510                setConverterError
                0x000000009d00a550                getConverterError

.text           0x000000009d00a588      0x570
 .text          0x000000009d00a588      0x2d8 build/default/production/source/PWM.o
                0x000000009d00a588                initPWM
                0x000000009d00a700                T4_IntHandler
                0x000000009d00a798                getPtrCasJednaPrenos
                0x000000009d00a7bc                runPWMPrepoctiAPredej
 .text          0x000000009d00a860      0x298 lib\platformDepLib.X.a(platformInitTimer1.o)
                0x000000009d00a860                setLedPulseActive
                0x000000009d00a894                getLedPulseActive
                0x000000009d00a8b8                initTimer1
                0x000000009d00a970                startTimer1
                0x000000009d00a9a8                setAdcTrigger
                0x000000009d00aa1c                timer1Handler

.text           0x000000009d00aaf8      0x418
 .text          0x000000009d00aaf8      0x258 build/default/production/source/filtrace.o
                0x000000009d00aaf8                initFiltr
                0x000000009d00ab3c                runFiltr
                0x000000009d00ad24                getFiltrOutput
 .text          0x000000009d00ad50      0x1c0 lib\platformDepLib.X.a(platformInitTimer8.o)
                0x000000009d00ad50                initTimer8
                0x000000009d00ae08                startTimer8
                0x000000009d00ae40                is1ms
                0x000000009d00ae80                timer8Handler

.text           0x000000009d00af10      0x1a0
 .text          0x000000009d00af10      0x1a0 c:/program files/microchip/xc32/v4.35/bin/bin/../../lib/gcc/pic32mx/8.3.1/../../../../pic32mx/lib/fpu64\libpic32.a(strcpy.o)
                0x000000009d00af10                strcpy

.text.__pop_int
                0x000000009d00b0b0      0x188
 .text.__pop_int
                0x000000009d00b0b0      0x188 c:/program files/microchip/xc32/v4.35/bin/bin/../../lib/gcc/pic32mx/8.3.1/../../../../pic32mx/lib/fpu64\libc-musl.a(__pop_int.o)
                0x000000009d00b0b0                __pop_int
                0x000000009d00b0b0                __pop_int_needed

.text           0x000000009d000000      0x168
 .text          0x000000009d000000      0x168 c:/program files/microchip/xc32/v4.35/bin/bin/../../lib/gcc/pic32mx/8.3.1/../../../../pic32mx/lib/fpu64\libpic32.a(strlen.o)
                0x000000009d000000                strlen

.text           0x000000009d00b238      0x15c
 .text          0x000000009d00b238      0x15c lib\platformDepLib.X.a(VarConversion.o)
                0x000000009d00b238                integerToBytes
                0x000000009d00b28c                bytesToInteger
                0x000000009d00b2cc                floatToBytes
                0x000000009d00b33c                bytesToFloat

.text.__fmt_d   0x000000009d00b394      0x150
 .text.__fmt_d  0x000000009d00b394      0x150 c:/program files/microchip/xc32/v4.35/bin/bin/../../lib/gcc/pic32mx/8.3.1/../../../../pic32mx/lib/fpu64\libc-musl.a(__fmt_d.o)
                0x000000009d00b394                __fmt_d_needed
                0x000000009d00b394                __fmt_d

.text.__cvt_u   0x000000009d00b4e4      0x13c
 .text.__cvt_u  0x000000009d00b4e4      0x13c c:/program files/microchip/xc32/v4.35/bin/bin/../../lib/gcc/pic32mx/8.3.1/../../../../pic32mx/lib/fpu64\libc-musl.a(__cvt_u.o)
                0x000000009d00b4e4                __cvt_u

.text           0x000000009d00b620      0x214
 .text          0x000000009d00b620      0x10c build/default/production/source/platformMainMK.o
                0x000000009d00b620                configCPU32mk
                0x000000009d00b6cc                main
 .text          0x000000009d00b72c      0x108 lib\platformDepLib.X.a(platformInputCapture.o)
                0x000000009d00b72c                setInputCaptureAsIrcInput
                0x000000009d00b7fc                getIrcChannelBValue

.text.__pad     0x000000009d00b834      0x100
 .text.__pad    0x000000009d00b834      0x100 c:/program files/microchip/xc32/v4.35/bin/bin/../../lib/gcc/pic32mx/8.3.1/../../../../pic32mx/lib/fpu64\libc-musl.a(__printf_core.o)
                0x000000009d00b834                __pad

.text.__pop_ptr
                0x000000009d00b934       0xe4
 .text.__pop_ptr
                0x000000009d00b934       0xe4 c:/program files/microchip/xc32/v4.35/bin/bin/../../lib/gcc/pic32mx/8.3.1/../../../../pic32mx/lib/fpu64\libc-musl.a(__pop_ptr.o)
                0x000000009d00b934                __pop_ptr_needed
                0x000000009d00b934                __pop_ptr

.text.general_exception
                0x000000009d00ba18       0xdc
 .text.general_exception
                0x000000009d00ba18       0xdc c:/program files/microchip/xc32/v4.35/bin/bin/../../lib/gcc/pic32mx/8.3.1/../../../../pic32mx/lib/fpu64\libpic32.a(general-exception.o)
                0x000000009d00ba18                _general_exception_context

.text           0x000000009d00baf4       0xd4
 .text          0x000000009d00baf4       0xd4 build/default/production/source/Hrad_pole.o
                0x000000009d00baf4                runHradPole

.text.__vsnprintf
                0x000000009d00bbc8       0x80
 .text.__vsnprintf
                0x000000009d00bbc8       0x80 c:/program files/microchip/xc32/v4.35/bin/bin/../../lib/gcc/pic32mx/8.3.1/../../../../pic32mx/lib/fpu64\libc-musl.a(__int_vsnprintf.o)
                0x000000009d00bbc8                __vsnprintf

.text           0x000000009d00bc48       0x7c
 .text          0x000000009d00bc48       0x7c c:/program files/microchip/xc32/v4.35/bin/bin/../../lib/gcc/pic32mx/8.3.1/../../../../pic32mx/lib/fpu64\libpic32.a(pic32_data_init_core.o)
                0x000000009d00bc48                __dinit_copy_val_data
                0x000000009d00bc48                __dinit_decompress
                0x000000009d00bc48                __dinit_copy_emb
                0x000000009d00bc50                __pic32_data_init

.text.atoi      0x000000009d00bcc4       0x7c
 .text.atoi     0x000000009d00bcc4       0x7c c:/program files/microchip/xc32/v4.35/bin/bin/../../lib/gcc/pic32mx/8.3.1/../../../../pic32mx/lib/fpu64\libc-musl.a(atoi.o)
                0x000000009d00bcc4                atoi

.text.__string_out
                0x000000009d000190       0x5c
 .text.__string_out
                0x000000009d000190       0x5c c:/program files/microchip/xc32/v4.35/bin/bin/../../lib/gcc/pic32mx/8.3.1/../../../../pic32mx/lib/fpu64\libc-musl.a(__printf_core.o)
                0x000000009d000190                __out

.text.__fmt_state
                0x000000009d00bd40       0x58
 .text.__fmt_state
                0x000000009d00bd40       0x58 c:/program files/microchip/xc32/v4.35/bin/bin/../../lib/gcc/pic32mx/8.3.1/../../../../pic32mx/lib/fpu64\libc-musl.a(__printf_core.o)
                0x000000009d00bd40                __fmt_state

.text.main_entry
                0x000000009d00bd98       0x54
 .text.main_entry
                0x000000009d00bd98       0x54 C:\Users\samec\AppData\Local\Temp\ccc4siZ0.o
                0x000000009d00bdcc                __crt0_exit

.rodata         0x000000009d00bdec       0x4c
 .rodata        0x000000009d00bdec       0x4c build/default/production/source/RTM_monitor.o

.text._bootstrap_exception_handler
                0x000000009d00be38       0x48
 .text._bootstrap_exception_handler
                0x000000009d00be38       0x48 c:/program files/microchip/xc32/v4.35/bin/bin/../../lib/gcc/pic32mx/8.3.1/../../../../pic32mx/lib/fpu64\libpic32.a(default-bootstrap-exception-handler.o)
                0x000000009d00be38                _bootstrap_exception_handler

.text._general_exception_handler
                0x000000009d00be80       0x48
 .text._general_exception_handler
                0x000000009d00be80       0x48 c:/program files/microchip/xc32/v4.35/bin/bin/../../lib/gcc/pic32mx/8.3.1/../../../../pic32mx/lib/fpu64\libpic32.a(default-general-exception-handler.o)
                0x000000009d00be80                _general_exception_handler

.text.__pop_float
                0x000000009d00bec8       0x48
 .text.__pop_float
                0x000000009d00bec8       0x48 c:/program files/microchip/xc32/v4.35/bin/bin/../../lib/gcc/pic32mx/8.3.1/../../../../pic32mx/lib/fpu64\libc-musl.a(__pop_float.o)
                0x000000009d00bec8                __pop_float
                0x000000009d00bec8                __pop_float_needed

.text           0x000000009d00bf10       0x44
 .text          0x000000009d00bf10       0x44 c:/program files/microchip/xc32/v4.35/bin/bin/../../lib/gcc/pic32mx/8.3.1/../../../../pic32mx/lib/fpu64\pic32_software_reset.o
                0x000000009d00bf10                __pic32_software_reset

.text.__vfprintf
                0x000000009d00bf54       0x3c
 .text.__vfprintf
                0x000000009d00bf54       0x3c c:/program files/microchip/xc32/v4.35/bin/bin/../../lib/gcc/pic32mx/8.3.1/../../../../pic32mx/lib/fpu64\libc-musl.a(__int_vfprintf.o)
                0x000000009d00bf54                __vfprintf

.text.strcat    0x000000009d00bf90       0x38
 .text.strcat   0x000000009d00bf90       0x38 c:/program files/microchip/xc32/v4.35/bin/bin/../../lib/gcc/pic32mx/8.3.1/../../../../pic32mx/lib/fpu64\libc-musl.a(strcat.o)
                0x000000009d00bf90                strcat

.text.__sio_sprintf_dn
                0x000000009d00bfc8       0x2c
 .text.__sio_sprintf_dn
                0x000000009d00bfc8       0x2c c:/program files/microchip/xc32/v4.35/bin/bin/../../lib/gcc/pic32mx/8.3.1/../../../../pic32mx/lib/fpu64\libc-musl.a(__sio_sprintf_dn.o)
                0x000000009d00bfc8                __sio_sprintf_dn

.text.memcpy    0x000000009d00bff4       0x2c
 .text.memcpy   0x000000009d00bff4       0x2c c:/program files/microchip/xc32/v4.35/bin/bin/../../lib/gcc/pic32mx/8.3.1/../../../../pic32mx/lib/fpu64\libc-musl.a(memcpy.o)
                0x000000009d00bff4                memcpy

.text.__wrap_sprintf
                0x000000009d00c020       0x28
 .text.__wrap_sprintf
                0x000000009d00c020       0x28 c:/program files/microchip/xc32/v4.35/bin/bin/../../lib/gcc/pic32mx/8.3.1/../../../../pic32mx/lib/fpu64\libc-musl.a(__sio_sprintf_dn.o)
                0x000000009d00c020                _dsprintf_dn
                0x000000009d00c020                _sprintf_dn

.text.memset    0x000000009d00c048       0x28
 .text.memset   0x000000009d00c048       0x28 c:/program files/microchip/xc32/v4.35/bin/bin/../../lib/gcc/pic32mx/8.3.1/../../../../pic32mx/lib/fpu64\libc-musl.a(memset.o)
                0x000000009d00c048                memset

.text.__vsprintf
                0x000000009d00c070       0x28
 .text.__vsprintf
                0x000000009d00c070       0x28 c:/program files/microchip/xc32/v4.35/bin/bin/../../lib/gcc/pic32mx/8.3.1/../../../../pic32mx/lib/fpu64\libc-musl.a(__int_vsprintf.o)
                0x000000009d00c070                __vsprintf

.text           0x000000009d00c098       0x20
 .text          0x000000009d00c098       0x20 c:/program files/microchip/xc32/v4.35/bin/bin/../../lib/gcc/pic32mx/8.3.1/../../../../pic32mx/lib/fpu64\libpic32.a(pic32_data_init_copy.o)
                0x000000009d00c098                __dinit_copy_needed
                0x000000009d00c098                __dinit_copy

.text.tolower   0x000000009d00c0b8       0x1c
 .text.tolower  0x000000009d00c0b8       0x1c c:/program files/microchip/xc32/v4.35/bin/bin/../../lib/gcc/pic32mx/8.3.1/../../../../pic32mx/lib/fpu64\libc-musl.a(tolower.o)
                0x000000009d00c0b8                tolower

.text.__tolower_l
                0x000000009d00c0d4       0x1c
 .text.__tolower_l
                0x000000009d00c0d4       0x1c c:/program files/microchip/xc32/v4.35/bin/bin/../../lib/gcc/pic32mx/8.3.1/../../../../pic32mx/lib/fpu64\libc-musl.a(tolower.o)
                0x000000009d00c0d4                tolower_l
                0x000000009d00c0d4                __tolower_l

.MIPS.abiflags  0x000000009d000168       0x18
 .MIPS.abiflags
                0x000000009d000168       0x18 c:/program files/microchip/xc32/v4.35/bin/bin/../../lib/gcc/pic32mx/8.3.1/../../../../pic32mx/lib/fpu64\debug-exception-return.o

.text           0x000000009d00c0f0       0x18
 .text          0x000000009d00c0f0       0x18 c:/program files/microchip/xc32/v4.35/bin/bin/../../lib/gcc/pic32mx/8.3.1/../../../../pic32mx/lib/fpu64\libpic32.a(default-nmi-handler.o)
                0x000000009d00c0f0                _nmi_handler

.rodata         0x000000009d00c108       0x18
 .rodata        0x000000009d00c108       0x18 c:/program files/microchip/xc32/v4.35/bin/bin/../../lib/gcc/pic32mx/8.3.1/../../../../pic32mx/lib/fpu64\libc-musl.a(__printf_core.o)

.text           0x000000009d00c120       0x18
 .text          0x000000009d00c120       0x18 c:/program files/microchip/xc32/v4.35/bin/bin/../../lib/gcc/pic32mx/8.3.1/../../../../pic32mx/lib/fpu64\libpic32.a(pic32_data_init_clear.o)
                0x000000009d00c120                __dinit_clear_needed
                0x000000009d00c120                __dinit_clear

.rodata         0x000000009d0001ec       0x14
 .rodata        0x000000009d0001ec       0x14 c:/program files/microchip/xc32/v4.35/bin/bin/../../lib/gcc/pic32mx/8.3.1/../../../../pic32mx/lib/fpu64\libpic32.a(pic32_data_init_core.o)

.rodata.str1.4  0x000000009d00c138        0xc
 .rodata.str1.4
                0x000000009d00c138        0xc c:/program files/microchip/xc32/v4.35/bin/bin/../../lib/gcc/pic32mx/8.3.1/../../../../pic32mx/lib/fpu64\libc-musl.a(__printf_core.o)

.text._on_reset
                0x000000009d00c144        0x8
 .text._on_reset
                0x000000009d00c144        0x8 c:/program files/microchip/xc32/v4.35/bin/bin/../../lib/gcc/pic32mx/8.3.1/../../../../pic32mx/lib/fpu64\libpic32.a(default-on-reset.o)
                0x000000009d00c144                _on_reset

.text._on_bootstrap
                0x000000009d00c14c        0x8
 .text._on_bootstrap
                0x000000009d00c14c        0x8 c:/program files/microchip/xc32/v4.35/bin/bin/../../lib/gcc/pic32mx/8.3.1/../../../../pic32mx/lib/fpu64\libpic32.a(default-on-bootstrap.o)
                0x000000009d00c14c                _on_bootstrap

.text.__dummy_fmt3
                0x000000009d00c154        0x8
 .text.__dummy_fmt3
                0x000000009d00c154        0x8 c:/program files/microchip/xc32/v4.35/bin/bin/../../lib/gcc/pic32mx/8.3.1/../../../../pic32mx/lib/fpu64\libc-musl.a(__printf_core.o)
                0x000000009d00c154                __fmt_u
                0x000000009d00c154                __fmt_o

.text.__dummy_fmt4
                0x000000009d00c15c        0x8
 .text.__dummy_fmt4
                0x000000009d00c15c        0x8 c:/program files/microchip/xc32/v4.35/bin/bin/../../lib/gcc/pic32mx/8.3.1/../../../../pic32mx/lib/fpu64\libc-musl.a(__printf_core.o)
                0x000000009d00c15c                __fmt_a
                0x000000009d00c15c                __fmt_fp
                0x000000009d00c15c                __fmt_x

.text.__dummy_fmts
                0x000000009d00c164        0x8
 .text.__dummy_fmts
                0x000000009d00c164        0x8 c:/program files/microchip/xc32/v4.35/bin/bin/../../lib/gcc/pic32mx/8.3.1/../../../../pic32mx/lib/fpu64\libc-musl.a(__printf_core.o)
                0x000000009d00c164                __fmt_s

.text%z113      0x0000000000000000        0x0
 .text          0x0000000000000000        0x0 c:/program files/microchip/xc32/v4.35/bin/bin/../../lib/gcc/pic32mx/8.3.1/../../../../pic32mx/lib/./proc/32MK1024MCF100\vector_offset_init.o

.text%z114      0x0000000000000000        0x0
 .text          0x0000000000000000        0x0 c:/program files/microchip/xc32/v4.35/bin/bin/../../lib/gcc/pic32mx/8.3.1/../../../../pic32mx/lib/fpu64\libpic32.a(errno.o)

.text%z115      0x0000000000000000        0x0
 .text          0x0000000000000000        0x0 c:/program files/microchip/xc32/v4.35/bin/bin/../../lib/gcc/pic32mx/8.3.1/../../../../pic32mx/lib/fpu64\libc-musl.a(__int_vfprintf.o)

.text%z116      0x0000000000000000        0x0
 .text          0x0000000000000000        0x0 c:/program files/microchip/xc32/v4.35/bin/bin/../../lib/gcc/pic32mx/8.3.1/../../../../pic32mx/lib/fpu64\libc-musl.a(__int_vsnprintf.o)

.text%z117      0x0000000000000000        0x0
 .text          0x0000000000000000        0x0 c:/program files/microchip/xc32/v4.35/bin/bin/../../lib/gcc/pic32mx/8.3.1/../../../../pic32mx/lib/fpu64\libc-musl.a(__pop_float.o)

.text%z118      0x0000000000000000        0x0
 .text          0x0000000000000000        0x0 c:/program files/microchip/xc32/v4.35/bin/bin/../../lib/gcc/pic32mx/8.3.1/../../../../pic32mx/lib/fpu64\libc-musl.a(__cvt_u.o)

.text%z119      0x0000000000000000        0x0
 .text          0x0000000000000000        0x0 c:/program files/microchip/xc32/v4.35/bin/bin/../../lib/gcc/pic32mx/8.3.1/../../../../pic32mx/lib/fpu64\libc-musl.a(__int_vsprintf.o)

.text%z120      0x0000000000000000        0x0
 .text          0x0000000000000000        0x0 c:/program files/microchip/xc32/v4.35/bin/bin/../../lib/gcc/pic32mx/8.3.1/../../../../pic32mx/lib/fpu64\libc-musl.a(tolower.o)

.text%z121      0x0000000000000000        0x0
 .text          0x0000000000000000        0x0 c:/program files/microchip/xc32/v4.35/bin/bin/../../lib/gcc/pic32mx/8.3.1/../../../../pic32mx/lib/fpu64\libc-musl.a(strcat.o)

.text%z122      0x0000000000000000        0x0
 .text          0x0000000000000000        0x0 c:/program files/microchip/xc32/v4.35/bin/bin/../../lib/gcc/pic32mx/8.3.1/../../../../pic32mx/lib/fpu64\libc-musl.a(memset.o)

.text%z123      0x0000000000000000        0x0
 .text          0x0000000000000000        0x0 c:/program files/microchip/xc32/v4.35/bin/bin/../../lib/gcc/pic32mx/8.3.1/../../../../pic32mx/lib/fpu64\libc-musl.a(memcpy.o)

.text%z124      0x0000000000000000        0x0
 .text          0x0000000000000000        0x0 c:/program files/microchip/xc32/v4.35/bin/bin/../../lib/gcc/pic32mx/8.3.1/../../../../pic32mx/lib/fpu64\libc-musl.a(atoi.o)

.text%z125      0x0000000000000000        0x0
 .text          0x0000000000000000        0x0 c:/program files/microchip/xc32/v4.35/bin/bin/../../lib/gcc/pic32mx/8.3.1/../../../../pic32mx/lib/fpu64\libc-musl.a(__printf_core.o)

.text%z126      0x0000000000000000        0x0
 .text          0x0000000000000000        0x0 c:/program files/microchip/xc32/v4.35/bin/bin/../../lib/gcc/pic32mx/8.3.1/../../../../pic32mx/lib/fpu64\libc-musl.a(__pop_ptr.o)

.text%z127      0x0000000000000000        0x0
 .text          0x0000000000000000        0x0 c:/program files/microchip/xc32/v4.35/bin/bin/../../lib/gcc/pic32mx/8.3.1/../../../../pic32mx/lib/fpu64\libc-musl.a(__pop_int.o)

.text%z128      0x0000000000000000        0x0
 .text          0x0000000000000000        0x0 c:/program files/microchip/xc32/v4.35/bin/bin/../../lib/gcc/pic32mx/8.3.1/../../../../pic32mx/lib/fpu64\libc-musl.a(__fmt_d.o)

.text%z129      0x0000000000000000        0x0
 .text          0x0000000000000000        0x0 c:/program files/microchip/xc32/v4.35/bin/bin/../../lib/gcc/pic32mx/8.3.1/../../../../pic32mx/lib/fpu64\libc-musl.a(__sio_sprintf_dn.o)

.text%z130      0x0000000000000000        0x0
 .text          0x0000000000000000        0x0 c:/program files/microchip/xc32/v4.35/bin/bin/../../lib/gcc/pic32mx/8.3.1/../../../../pic32mx/lib/fpu64\libpic32.a(default-general-exception-handler.o)

.text%z131      0x0000000000000000        0x0
 .text          0x0000000000000000        0x0 c:/program files/microchip/xc32/v4.35/bin/bin/../../lib/gcc/pic32mx/8.3.1/../../../../pic32mx/lib/fpu64\libpic32.a(defaultinterrupt.o)

.text%z132      0x0000000000000000        0x0
 .text          0x0000000000000000        0x0 c:/program files/microchip/xc32/v4.35/bin/bin/../../lib/gcc/pic32mx/8.3.1/../../../../pic32mx/lib/fpu64\libpic32.a(general-exception.o)

.text%z133      0x0000000000000000        0x0
 .text          0x0000000000000000        0x0 c:/program files/microchip/xc32/v4.35/bin/bin/../../lib/gcc/pic32mx/8.3.1/../../../../pic32mx/lib/fpu64\libpic32.a(default-on-bootstrap.o)

.text%z134      0x0000000000000000        0x0
 .text          0x0000000000000000        0x0 c:/program files/microchip/xc32/v4.35/bin/bin/../../lib/gcc/pic32mx/8.3.1/../../../../pic32mx/lib/fpu64\libpic32.a(default-on-reset.o)

.text%z135      0x0000000000000000        0x0
 .text          0x0000000000000000        0x0 c:/program files/microchip/xc32/v4.35/bin/bin/../../lib/gcc/pic32mx/8.3.1/../../../../pic32mx/lib/fpu64\libpic32.a(default-bootstrap-exception-handler.o)

.text%z136      0x0000000000000000        0x0
 .text          0x0000000000000000        0x0 c:/program files/microchip/xc32/v4.35/bin/bin/../../lib/gcc/pic32mx/8.3.1/../../../../pic32mx/lib/./proc/32MK1024MCF100\default_isr_vectors.o

.text%z137      0x0000000000000000        0x0
 .text          0x0000000000000000        0x0 C:\Users\samec\AppData\Local\Temp\ccUIjBse.o

.text%z138      0x0000000000000000        0x0
 .text          0x0000000000000000        0x0 C:\Users\samec\AppData\Local\Temp\ccYT4Xoq.o

.text%z139      0x0000000000000000        0x0
 .text          0x0000000000000000        0x0 C:\Users\samec\AppData\Local\Temp\ccc4siZ0.o

.text%z140      0x0000000000000000        0x0
 .text          0x0000000000000000        0x0 c:/program files/microchip/xc32/v4.35/bin/bin/../../lib/gcc/pic32mx/8.3.1/../../../../pic32mx/lib/fpu64\debug-exception-return.o
